# built in symbols that must always be preserved
_start1
malloc
free
memcpy
memmove
flascc_uiTickProc
_sync_synchronize


#custom
realloc
time
setjmp


# symbols for C++ exception handling
_Unwind_SjLj_Register
_Unwind_SjLj_Resume
_Unwind_SjLj_Unregister
_Unwind_SjLj_RaiseException

#BaconBox

#LuaManager
_Z16_wrap_new_Enginev
_Z18_wrap_Engine_pulsev
_Z19_wrap_delete_Enginev
_Z19_wrap_new_FlashFontv
_Z20_wrap_new_LuaManagerv
_Z20_wrap_new_TextEntityv
_Z22_wrap_delete_FlashFontv
_Z23_wrap_LuaManager_doFilev
_Z23_wrap_delete_LuaManagerv
_Z23_wrap_delete_TextEntityv
_Z24_wrap_Engine_applicationv
_Z25_wrap_LuaManager_doStringv
_Z25_wrap_new_MovieClipEntityv
_Z28_wrap_delete_MovieClipEntityv
_Z29_wrap_Engine_initializeEnginev
_Z29_wrap_LuaManager_addToLuaPathv
_Z29_wrap_TextEntity_setMovieClipv
_Z34_wrap_MovieClipEntity_setMovieClipv


_Z13getTypeByNameP9lua_StatePKc
_Z21luaUserDataconvertPtrP9lua_StateiPPvP14swig_type_infoi
_Z21luaopen_BaconBox_userP9lua_State
_Z24pushLuaWrapperBySwigTypeP9lua_StatePvP14swig_type_infoi
_Z7luacastP9lua_State
_luaopen_BaconBox
_luaopen_BaconBox_luacode



_ZN16SwigValueWrapperIN8BaconBox13KeySignalDataEEaSERKS1_
_ZN16SwigValueWrapperIN8BaconBox17KeyMaskSignalDataEEaSERKS1_
_ZN16SwigValueWrapperIN8BaconBox23PointerButtonSignalDataEEaSERKS1_
_ZN16SwigValueWrapperISt6vectorIPKN8BaconBox15MovieClipEntityESaIS4_EEEaSERKS6_
_ZN16SwigValueWrapperISt6vectorIPN8BaconBox15MovieClipEntityESaIS3_EEEaSERKS5_
_ZN5sigly12_signal_baseINS_14SingleThreadedEED0Ev
_ZN5sigly12_signal_baseINS_14SingleThreadedEED1Ev
_ZN5sigly13_signal_base0INS_14SingleThreadedEE10disconnectEPNS_8HasSlotsIS1_EE
_ZN5sigly13_signal_base0INS_14SingleThreadedEE13disconnectAllEv
_ZN5sigly13_signal_base0INS_14SingleThreadedEE14slot_duplicateEPKNS_8HasSlotsIS1_EEPS4_
_ZN5sigly13_signal_base0INS_14SingleThreadedEE15slot_disconnectEPNS_8HasSlotsIS1_EE
_ZN5sigly13_signal_base0INS_14SingleThreadedEEC2ERKS2_
_ZN5sigly13_signal_base0INS_14SingleThreadedEED0Ev
_ZN5sigly13_signal_base0INS_14SingleThreadedEED1Ev
_ZN5sigly13_signal_base1IN8BaconBox13KeySignalDataENS_14SingleThreadedEE10disconnectEPNS_8HasSlotsIS3_EE
_ZN5sigly13_signal_base1IN8BaconBox13KeySignalDataENS_14SingleThreadedEE13disconnectAllEv
_ZN5sigly13_signal_base1IN8BaconBox13KeySignalDataENS_14SingleThreadedEE14slot_duplicateEPKNS_8HasSlotsIS3_EEPS6_
_ZN5sigly13_signal_base1IN8BaconBox13KeySignalDataENS_14SingleThreadedEE15slot_disconnectEPNS_8HasSlotsIS3_EE
_ZN5sigly13_signal_base1IN8BaconBox13KeySignalDataENS_14SingleThreadedEEC2ERKS4_
_ZN5sigly13_signal_base1IN8BaconBox13KeySignalDataENS_14SingleThreadedEED0Ev
_ZN5sigly13_signal_base1IN8BaconBox13KeySignalDataENS_14SingleThreadedEED1Ev
_ZN5sigly13_signal_base1IN8BaconBox17KeyMaskSignalDataENS_14SingleThreadedEE10disconnectEPNS_8HasSlotsIS3_EE
_ZN5sigly13_signal_base1IN8BaconBox17KeyMaskSignalDataENS_14SingleThreadedEE13disconnectAllEv
_ZN5sigly13_signal_base1IN8BaconBox17KeyMaskSignalDataENS_14SingleThreadedEE14slot_duplicateEPKNS_8HasSlotsIS3_EEPS6_
_ZN5sigly13_signal_base1IN8BaconBox17KeyMaskSignalDataENS_14SingleThreadedEE15slot_disconnectEPNS_8HasSlotsIS3_EE
_ZN5sigly13_signal_base1IN8BaconBox17KeyMaskSignalDataENS_14SingleThreadedEEC2ERKS4_
_ZN5sigly13_signal_base1IN8BaconBox17KeyMaskSignalDataENS_14SingleThreadedEED0Ev
_ZN5sigly13_signal_base1IN8BaconBox17KeyMaskSignalDataENS_14SingleThreadedEED1Ev
_ZN5sigly13_signal_base1IN8BaconBox17PointerSignalDataENS_14SingleThreadedEE10disconnectEPNS_8HasSlotsIS3_EE
_ZN5sigly13_signal_base1IN8BaconBox17PointerSignalDataENS_14SingleThreadedEE13disconnectAllEv
_ZN5sigly13_signal_base1IN8BaconBox17PointerSignalDataENS_14SingleThreadedEE14slot_duplicateEPKNS_8HasSlotsIS3_EEPS6_
_ZN5sigly13_signal_base1IN8BaconBox17PointerSignalDataENS_14SingleThreadedEE15slot_disconnectEPNS_8HasSlotsIS3_EE
_ZN5sigly13_signal_base1IN8BaconBox17PointerSignalDataENS_14SingleThreadedEEC2ERKS4_
_ZN5sigly13_signal_base1IN8BaconBox17PointerSignalDataENS_14SingleThreadedEED0Ev
_ZN5sigly13_signal_base1IN8BaconBox17PointerSignalDataENS_14SingleThreadedEED1Ev
_ZN5sigly13_signal_base1IN8BaconBox23PointerButtonSignalDataENS_14SingleThreadedEE10disconnectEPNS_8HasSlotsIS3_EE
_ZN5sigly13_signal_base1IN8BaconBox23PointerButtonSignalDataENS_14SingleThreadedEE13disconnectAllEv
_ZN5sigly13_signal_base1IN8BaconBox23PointerButtonSignalDataENS_14SingleThreadedEE14slot_duplicateEPKNS_8HasSlotsIS3_EEPS6_
_ZN5sigly13_signal_base1IN8BaconBox23PointerButtonSignalDataENS_14SingleThreadedEE15slot_disconnectEPNS_8HasSlotsIS3_EE
_ZN5sigly13_signal_base1IN8BaconBox23PointerButtonSignalDataENS_14SingleThreadedEEC2ERKS4_
_ZN5sigly13_signal_base1IN8BaconBox23PointerButtonSignalDataENS_14SingleThreadedEED0Ev
_ZN5sigly13_signal_base1IN8BaconBox23PointerButtonSignalDataENS_14SingleThreadedEED1Ev
_ZN5sigly13_signal_base1IPvNS_14SingleThreadedEE10disconnectEPNS_8HasSlotsIS2_EE
_ZN5sigly13_signal_base1IPvNS_14SingleThreadedEE13disconnectAllEv
_ZN5sigly13_signal_base1IPvNS_14SingleThreadedEE14slot_duplicateEPKNS_8HasSlotsIS2_EEPS5_
_ZN5sigly13_signal_base1IPvNS_14SingleThreadedEE15slot_disconnectEPNS_8HasSlotsIS2_EE
_ZN5sigly13_signal_base1IPvNS_14SingleThreadedEEC2ERKS3_
_ZN5sigly13_signal_base1IPvNS_14SingleThreadedEED0Ev
_ZN5sigly13_signal_base1IPvNS_14SingleThreadedEED1Ev
_ZN5sigly14SingleThreaded4lockEv
_ZN5sigly14SingleThreaded6unlockEv
_ZN5sigly14SingleThreadedD0Ev
_ZN5sigly14SingleThreadedD1Ev
_ZN5sigly7Signal0INS_14SingleThreadedEE5shootEv
_ZN5sigly7Signal0INS_14SingleThreadedEED0Ev
_ZN5sigly7Signal0INS_14SingleThreadedEED1Ev
_ZN5sigly7Signal0INS_14SingleThreadedEEclEv
_ZN5sigly7Signal1IN8BaconBox13KeySignalDataENS_14SingleThreadedEE5shootES2_
_ZN5sigly7Signal1IN8BaconBox13KeySignalDataENS_14SingleThreadedEED0Ev
_ZN5sigly7Signal1IN8BaconBox13KeySignalDataENS_14SingleThreadedEED1Ev
_ZN5sigly7Signal1IN8BaconBox13KeySignalDataENS_14SingleThreadedEEclES2_
_ZN5sigly7Signal1IN8BaconBox17KeyMaskSignalDataENS_14SingleThreadedEE5shootES2_
_ZN5sigly7Signal1IN8BaconBox17KeyMaskSignalDataENS_14SingleThreadedEED0Ev
_ZN5sigly7Signal1IN8BaconBox17KeyMaskSignalDataENS_14SingleThreadedEED1Ev
_ZN5sigly7Signal1IN8BaconBox17KeyMaskSignalDataENS_14SingleThreadedEEclES2_
_ZN5sigly7Signal1IN8BaconBox17PointerSignalDataENS_14SingleThreadedEE5shootES2_
_ZN5sigly7Signal1IN8BaconBox17PointerSignalDataENS_14SingleThreadedEED0Ev
_ZN5sigly7Signal1IN8BaconBox17PointerSignalDataENS_14SingleThreadedEED1Ev
_ZN5sigly7Signal1IN8BaconBox17PointerSignalDataENS_14SingleThreadedEEclES2_
_ZN5sigly7Signal1IN8BaconBox23PointerButtonSignalDataENS_14SingleThreadedEE5shootES2_
_ZN5sigly7Signal1IN8BaconBox23PointerButtonSignalDataENS_14SingleThreadedEED0Ev
_ZN5sigly7Signal1IN8BaconBox23PointerButtonSignalDataENS_14SingleThreadedEED1Ev
_ZN5sigly7Signal1IN8BaconBox23PointerButtonSignalDataENS_14SingleThreadedEEclES2_
_ZN5sigly7Signal1IPvNS_14SingleThreadedEE5shootES1_
_ZN5sigly7Signal1IPvNS_14SingleThreadedEED0Ev
_ZN5sigly7Signal1IPvNS_14SingleThreadedEED1Ev
_ZN5sigly7Signal1IPvNS_14SingleThreadedEEclES1_
_ZN5sigly8HasSlotsINS_14SingleThreadedEE13disconnectAllEv
_ZN5sigly8HasSlotsINS_14SingleThreadedEEC2ERKS2_
_ZN5sigly8HasSlotsINS_14SingleThreadedEED0Ev
_ZN5sigly8HasSlotsINS_14SingleThreadedEED1Ev
_ZN8BaconBox11DynamicPoolINS_15MovieClipEntityEED2Ev
_ZN8BaconBox23PointerButtonSignalDataD0Ev
_ZN8BaconBox23PointerButtonSignalDataD1Ev
_ZN8BaconBox6Symbol4PartC2ERKS1_
_ZN8BaconBox6Symbol4PartaSERKS1_
_ZN8BaconBox6SymbolD2Ev
_ZNSt10_List_baseIN8BaconBox6Symbol4PartESaIS2_EE8_M_clearEv
_ZNSt4listIN8BaconBox6Symbol4PartESaIS2_EE14_M_create_nodeERKS2_
_ZNSt4listIN8BaconBox6Symbol4PartESaIS2_EE6insertISt20_List_const_iteratorIS2_EEEvSt14_List_iteratorIS2_ET_SA_
_ZNSt4listIN8BaconBox6Symbol4PartESaIS2_EE8_M_eraseESt14_List_iteratorIS2_E
_ZNSt4listIN8BaconBox6Symbol4PartESaIS2_EEC1ISt20_List_const_iteratorIS2_EEET_S8_RKS3_
_ZNSt4listIPN5sigly17_connection_base0INS0_14SingleThreadedEEESaIS4_EE6insertISt20_List_const_iteratorIS4_EEEvSt14_List_iteratorIS4_ET_SC_
_ZNSt8_Rb_treeIPN5sigly12_signal_baseINS0_14SingleThreadedEEES4_St9_IdentityIS4_ESt4lessIS4_ESaIS4_EE16_M_insert_uniqueERKS4_
_ZNSt8_Rb_treeIPN5sigly12_signal_baseINS0_14SingleThreadedEEES4_St9_IdentityIS4_ESt4lessIS4_ESaIS4_EE5eraseERKS4_
_ZNSt8_Rb_treeIPN5sigly12_signal_baseINS0_14SingleThreadedEEES4_St9_IdentityIS4_ESt4lessIS4_ESaIS4_EE8_M_eraseEPSt13_Rb_tree_nodeIS4_E
_ZNSt8_Rb_treeISsSt4pairIKSsS0_IiiEESt10_Select1stIS3_ESt4lessISsESaIS3_EE14_M_create_nodeERKS3_
_ZNSt8_Rb_treeISsSt4pairIKSsS0_IiiEESt10_Select1stIS3_ESt4lessISsESaIS3_EE7_M_copyEPKSt13_Rb_tree_nodeIS3_EPSB_
_ZNSt8_Rb_treeISsSt4pairIKSsS0_IiiEESt10_Select1stIS3_ESt4lessISsESaIS3_EE8_M_eraseEPSt13_Rb_tree_nodeIS3_E
_ZNSt8_Rb_treeISsSt4pairIKSsiESt10_Select1stIS2_ESt4lessISsESaIS2_EE8_M_eraseEPSt13_Rb_tree_nodeIS2_E
_ZNSt8_Rb_treeIiSt4pairIKiN8BaconBox11ColorMatrixEESt10_Select1stIS4_ESt4lessIiESaIS4_EE14_M_create_nodeERKS4_
_ZNSt8_Rb_treeIiSt4pairIKiN8BaconBox11ColorMatrixEESt10_Select1stIS4_ESt4lessIiESaIS4_EE7_M_copyEPKSt13_Rb_tree_nodeIS4_EPSC_
_ZNSt8_Rb_treeIiSt4pairIKiN8BaconBox11ColorMatrixEESt10_Select1stIS4_ESt4lessIiESaIS4_EE8_M_eraseEPSt13_Rb_tree_nodeIS4_E
_ZNSt8_Rb_treeIiSt4pairIKiN8BaconBox6MatrixEESt10_Select1stIS4_ESt4lessIiESaIS4_EE14_M_create_nodeERKS4_
_ZNSt8_Rb_treeIiSt4pairIKiN8BaconBox6MatrixEESt10_Select1stIS4_ESt4lessIiESaIS4_EE7_M_copyEPKSt13_Rb_tree_nodeIS4_EPSC_
_ZNSt8_Rb_treeIiSt4pairIKiN8BaconBox6MatrixEESt10_Select1stIS4_ESt4lessIiESaIS4_EE8_M_eraseEPSt13_Rb_tree_nodeIS4_E
_ZNSt8_Rb_treeIiSt4pairIKiiESt10_Select1stIS2_ESt4lessIiESaIS2_EE7_M_copyEPKSt13_Rb_tree_nodeIS2_EPSA_
_ZNSt8_Rb_treeIiSt4pairIKiiESt10_Select1stIS2_ESt4lessIiESaIS2_EE8_M_eraseEPSt13_Rb_tree_nodeIS2_E
_ZTIN5sigly12_signal_baseINS_14SingleThreadedEEE
_ZTIN5sigly13_signal_base0INS_14SingleThreadedEEE
_ZTIN5sigly13_signal_base1IN8BaconBox13KeySignalDataENS_14SingleThreadedEEE
_ZTIN5sigly13_signal_base1IN8BaconBox17KeyMaskSignalDataENS_14SingleThreadedEEE
_ZTIN5sigly13_signal_base1IN8BaconBox17PointerSignalDataENS_14SingleThreadedEEE
_ZTIN5sigly13_signal_base1IN8BaconBox23PointerButtonSignalDataENS_14SingleThreadedEEE
_ZTIN5sigly13_signal_base1IPvNS_14SingleThreadedEEE
_ZTIN5sigly14SingleThreadedE
_ZTIN5sigly7Signal0INS_14SingleThreadedEEE
_ZTIN5sigly7Signal1IN8BaconBox13KeySignalDataENS_14SingleThreadedEEE
_ZTIN5sigly7Signal1IN8BaconBox17KeyMaskSignalDataENS_14SingleThreadedEEE
_ZTIN5sigly7Signal1IN8BaconBox17PointerSignalDataENS_14SingleThreadedEEE
_ZTIN5sigly7Signal1IN8BaconBox23PointerButtonSignalDataENS_14SingleThreadedEEE
_ZTIN5sigly7Signal1IPvNS_14SingleThreadedEEE
_ZTIN5sigly8HasSlotsINS_14SingleThreadedEEE
_ZTIN8BaconBox23PointerButtonSignalDataE
_ZTSN5sigly12_signal_baseINS_14SingleThreadedEEE
_ZTSN5sigly13_signal_base0INS_14SingleThreadedEEE
_ZTSN5sigly13_signal_base1IN8BaconBox13KeySignalDataENS_14SingleThreadedEEE
_ZTSN5sigly13_signal_base1IN8BaconBox17KeyMaskSignalDataENS_14SingleThreadedEEE
_ZTSN5sigly13_signal_base1IN8BaconBox17PointerSignalDataENS_14SingleThreadedEEE
_ZTSN5sigly13_signal_base1IN8BaconBox23PointerButtonSignalDataENS_14SingleThreadedEEE
_ZTSN5sigly13_signal_base1IPvNS_14SingleThreadedEEE
_ZTSN5sigly14SingleThreadedE
_ZTSN5sigly7Signal0INS_14SingleThreadedEEE
_ZTSN5sigly7Signal1IN8BaconBox13KeySignalDataENS_14SingleThreadedEEE
_ZTSN5sigly7Signal1IN8BaconBox17KeyMaskSignalDataENS_14SingleThreadedEEE
_ZTSN5sigly7Signal1IN8BaconBox17PointerSignalDataENS_14SingleThreadedEEE
_ZTSN5sigly7Signal1IN8BaconBox23PointerButtonSignalDataENS_14SingleThreadedEEE
_ZTSN5sigly7Signal1IPvNS_14SingleThreadedEEE
_ZTSN5sigly8HasSlotsINS_14SingleThreadedEEE
_ZTSN8BaconBox23PointerButtonSignalDataE
_ZTVN5sigly12_signal_baseINS_14SingleThreadedEEE
_ZTVN5sigly13_signal_base0INS_14SingleThreadedEEE
_ZTVN5sigly13_signal_base1IN8BaconBox13KeySignalDataENS_14SingleThreadedEEE
_ZTVN5sigly13_signal_base1IN8BaconBox17KeyMaskSignalDataENS_14SingleThreadedEEE
_ZTVN5sigly13_signal_base1IN8BaconBox17PointerSignalDataENS_14SingleThreadedEEE
_ZTVN5sigly13_signal_base1IN8BaconBox23PointerButtonSignalDataENS_14SingleThreadedEEE
_ZTVN5sigly13_signal_base1IPvNS_14SingleThreadedEEE
_ZTVN5sigly14SingleThreadedE
_ZTVN5sigly7Signal0INS_14SingleThreadedEEE
_ZTVN5sigly7Signal1IN8BaconBox13KeySignalDataENS_14SingleThreadedEEE
_ZTVN5sigly7Signal1IN8BaconBox17KeyMaskSignalDataENS_14SingleThreadedEEE
_ZTVN5sigly7Signal1IN8BaconBox17PointerSignalDataENS_14SingleThreadedEEE
_ZTVN5sigly7Signal1IN8BaconBox23PointerButtonSignalDataENS_14SingleThreadedEEE
_ZTVN5sigly7Signal1IPvNS_14SingleThreadedEEE
_ZTVN5sigly8HasSlotsINS_14SingleThreadedEEE
_ZTVN8BaconBox23PointerButtonSignalDataE



_Unwind_SjLj_Resume
_ZN3AS35local3varC1ERKS1_
_ZN3AS35local3varD1Ev
_ZN3AS35local3varaSES1_
_ZN8BaconBox10AABBHitBox2IDE
_ZN8BaconBox10AABBHitBox7setAABBERKNS_22AxisAlignedBoundingBoxE
_ZN8BaconBox10InputStateC1Ev
_ZN8BaconBox10MainWindow11getInstanceEv
_ZN8BaconBox10MainWindow12DEFAULT_NAMEE
_ZN8BaconBox10MainWindow12releaseInputEv
_ZN8BaconBox10MainWindow14setOrientationENS_17WindowOrientation4typeE
_ZN8BaconBox10MainWindow15getContextWidthEv
_ZN8BaconBox10MainWindow16getContextHeightEv
_ZN8BaconBox10MainWindow18getResolutionWidthEv
_ZN8BaconBox10MainWindow19getResolutionHeightEv
_ZN8BaconBox10MainWindow9grabInputEv
_ZN8BaconBox10MathHelper12AngleConvertIfE18DEGREES_TO_RADIANSE
_ZN8BaconBox10MathHelper12AngleConvertIfE18RADIANS_TO_DEGREESE
_ZN8BaconBox10SignalDataC1Ev
_ZN8BaconBox10TextEntity2IDE
_ZN8BaconBox10TextEntityC1EPNS_4FontE
_ZN8BaconBox10TextEntityC1Ev
_ZN8BaconBox11AudioEngine11playSoundFXERKSsi
_ZN8BaconBox11AudioEngine14getMusicEngineEv
_ZN8BaconBox11AudioEngine14getSoundEngineEv
_ZN8BaconBox11AudioEngine19playBackgroundMusicERKSsid
_ZN8BaconBox11ColorMatrix11deserializeERKNS_5ValueE
_ZN8BaconBox11ColorMatrix18setAlphaMultiplierEf
_ZN8BaconBox11ColorMatrix6concatERKS0_
_ZN8BaconBox11ColorMatrixC1ERKS0_
_ZN8BaconBox11ColorMatrixC1Effffffff
_ZN8BaconBox11ColorMatrixC1Ev
_ZN8BaconBox11ColorMatrixaSERKS0_
_ZN8BaconBox11CursorStateC1Eff
_ZN8BaconBox11LuaCallback4callEPv
_ZN8BaconBox11LuaCallback4callEv
_ZN8BaconBox11LuaCallbackC1EP9lua_StateRKSs
_ZN8BaconBox11MusicEngine4muteEv
_ZN8BaconBox11MusicEngine6unmuteEv
_ZN8BaconBox11MusicEngine8setMutedEb
_ZN8BaconBox11SoundEngine4muteEv
_ZN8BaconBox11SoundEngine6unmuteEv
_ZN8BaconBox11SoundEngine8setMutedEb
_ZN8BaconBox12CursorButton10NB_BUTTONSE
_ZN8BaconBox12CursorButton11SCROLL_DOWNE
_ZN8BaconBox12CursorButton14OTHER_BUTTON_1E
_ZN8BaconBox12CursorButton14OTHER_BUTTON_2E
_ZN8BaconBox12CursorButton14OTHER_BUTTON_3E
_ZN8BaconBox12CursorButton14OTHER_BUTTON_4E
_ZN8BaconBox12CursorButton14OTHER_BUTTON_5E
_ZN8BaconBox12CursorButton14OTHER_BUTTON_6E
_ZN8BaconBox12CursorButton14OTHER_BUTTON_7E
_ZN8BaconBox12CursorButton14OTHER_BUTTON_8E
_ZN8BaconBox12CursorButton14OTHER_BUTTON_9E
_ZN8BaconBox12CursorButton15OTHER_BUTTON_10E
_ZN8BaconBox12CursorButton15OTHER_BUTTON_11E
_ZN8BaconBox12CursorButton15OTHER_BUTTON_12E
_ZN8BaconBox12CursorButton15OTHER_BUTTON_13E
_ZN8BaconBox12CursorButton15OTHER_BUTTON_14E
_ZN8BaconBox12CursorButton15OTHER_BUTTON_15E
_ZN8BaconBox12CursorButton15OTHER_BUTTON_16E
_ZN8BaconBox12CursorButton15OTHER_BUTTON_17E
_ZN8BaconBox12CursorButton15OTHER_BUTTON_18E
_ZN8BaconBox12CursorButton15OTHER_BUTTON_19E
_ZN8BaconBox12CursorButton15OTHER_BUTTON_20E
_ZN8BaconBox12CursorButton4LEFTE
_ZN8BaconBox12CursorButton5RIGHTE
_ZN8BaconBox12CursorButton6MIDDLEE
_ZN8BaconBox12CursorButton7INVALIDE
_ZN8BaconBox12CursorButton9SCROLL_UPE
_ZN8BaconBox12HasNameProxy7setNameERKSs
_ZN8BaconBox12HasNameProxyC1EPNS_6EntityERKSsb
_ZN8BaconBox12PointerState18DEFAULT_NB_CURSORSE
_ZN8BaconBox12PointerStateC1Ej
_ZN8BaconBox13EntityFactory11getInstanceEv
_ZN8BaconBox13EntityFactory13getTextEntityERKSs
_ZN8BaconBox13EntityFactory17initMovieClipPoolEi
_ZN8BaconBox13EntityFactory18getMovieClipEntityERKSsb
_ZN8BaconBox13EntityFactory26internalGetMovieClipEntityERKSsb
_ZN8BaconBox13KeySignalDataC1ERKNS_13KeyboardStateEi
_ZN8BaconBox13KeySignalDataD1Ev
_ZN8BaconBox13KeyboardStateC1Ev
_ZN8BaconBox13SizeComponent2IDE
_ZN8BaconBox13TextComponent12setAlignmentENS_13TextAlignment4typeE
_ZN8BaconBox13TextComponent20MESSAGE_FONT_CHANGEDE
_ZN8BaconBox13TextComponent20MESSAGE_SIZE_CHANGEDE
_ZN8BaconBox13TextComponent20MESSAGE_TEXT_CHANGEDE
_ZN8BaconBox13TextComponent25MESSAGE_ALIGNMENT_CHANGEDE
_ZN8BaconBox13TextComponent2IDE
_ZN8BaconBox13TextComponent7getFontEv
_ZN8BaconBox13TextComponent7getSizeEv
_ZN8BaconBox13TextComponent7setFontEPNS_4FontE
_ZN8BaconBox13TextComponent7setSizeENS_6VectorIfLj2EEE
_ZN8BaconBox13TextComponent7setTextERKSs
_ZN8BaconBox13TextComponentC1Ev
_ZN8BaconBox13TimelineProxy11gotoAndPlayERKSs
_ZN8BaconBox13TimelineProxy11gotoAndPlayEi
_ZN8BaconBox13TimelineProxy11gotoAndStopERKSs
_ZN8BaconBox13TimelineProxy11gotoAndStopEi
_ZN8BaconBox13TimelineProxy4playEv
_ZN8BaconBox13TimelineProxy4stopEv
_ZN8BaconBox13TimelineProxy9nextFrameEv
_ZN8BaconBox13TimelineProxy9prevFrameEv
_ZN8BaconBox13TimelineProxyC1EPNS_6EntityE
_ZN8BaconBox14ClickableProxyC1EPNS_6EntityEb
_ZN8BaconBox14ColorTransform21MESSAGE_COLOR_CHANGEDE
_ZN8BaconBox14ColorTransform2IDE
_ZN8BaconBox14ColorTransform8getColorEv
_ZN8BaconBox14ColorTransform8setColorERKNS_5ColorE
_ZN8BaconBox14LuaEntityProxy10addHitMaskEPNS_15MovieClipEntityE
_ZN8BaconBox14LuaEntityProxy11setLuaClassEP9lua_State
_ZN8BaconBox14LuaEntityProxy14reloadLuaClassEv
_ZN8BaconBox14LuaEntityProxyC1EPNS_6EntityEb
_ZN8BaconBox14SubTextureInfoC1EPNS_18TextureInformationENS_6VectorIfLj2EEES4_
_ZN8BaconBox14TransformProxy11setPositionERKNS_6VectorIfLj2EEE
_ZN8BaconBox14TransformProxy11setRotationEf
_ZN8BaconBox14TransformProxy8setScaleERKNS_6VectorIfLj2EEE
_ZN8BaconBox14TransformProxyC1EPNS_6EntityEb
_ZN8BaconBox14UIManagerProxy12addClickableEP9lua_State
_ZN8BaconBox14UIManagerProxy12addClickableEPNS_15MovieClipEntityE
_ZN8BaconBox14UIManagerProxyC1EPNS_6EntityEb
_ZN8BaconBox15AABBHitBoxProxy7getAABBEv
_ZN8BaconBox15AABBHitBoxProxy7setAABBERKNS_22AxisAlignedBoundingBoxE
_ZN8BaconBox15AABBHitBoxProxyC1EPNS_6EntityEb
_ZN8BaconBox15EntityContainer2IDE
_ZN8BaconBox15InputSignalDataC1Ev
_ZN8BaconBox15MatrixComponent22MESSAGE_MATRIX_CHANGEDE
_ZN8BaconBox15MatrixComponent2IDE
_ZN8BaconBox15MovieClipEntity2IDE
_ZN8BaconBox15MovieClipEntityC1ERKS0_
_ZN8BaconBox15MovieClipEntityC1Ev
_ZN8BaconBox15ResourceManager10removeFontERKSs
_ZN8BaconBox15ResourceManager11removeMusicERKSs
_ZN8BaconBox15ResourceManager11removeSoundERKSs
_ZN8BaconBox15ResourceManager13removeTextureERKSs
_ZN8BaconBox15ResourceManager19loadMusicFromBundleERKSsS2_b
_ZN8BaconBox15ResourceManager19loadSoundFromBundleERKSsS2_b
_ZN8BaconBox15ResourceManager20loadFlashExporterXMLERKSsS2_
_ZN8BaconBox15ResourceManager20loadFontRelativePathERKSsS2_b
_ZN8BaconBox15ResourceManager21loadMusicRelativePathERKSsS2_b
_ZN8BaconBox15ResourceManager21loadSoundRelativePathERKSsS2_b
_ZN8BaconBox15ResourceManager7getFontERKSs
_ZN8BaconBox15ResourceManager8getMusicERKSs
_ZN8BaconBox15ResourceManager8getSoundERKSs
_ZN8BaconBox15ResourceManager8loadFontERKSsS2_b
_ZN8BaconBox15ResourceManager9loadMusicERKSsS2_b
_ZN8BaconBox15ResourceManager9loadSoundERKSsS2_b
_ZN8BaconBox15SymbolComponent2IDE
_ZN8BaconBox15SymbolComponent9getSymbolEv
_ZN8BaconBox15SymbolComponent9setSymbolEPNS_6SymbolE
_ZN8BaconBox15SymbolComponentC1Ev
_ZN8BaconBox17KeyMaskSignalDataC1ERKNS_13KeyboardStateERKSs
_ZN8BaconBox17KeyMaskSignalDataD1Ev
_ZN8BaconBox17PointerSignalDataC1ERKNS_12PointerStateEj
_ZN8BaconBox17PointerSignalDataD1Ev
_ZN8BaconBox17PointerSignalDataD2Ev
_ZN8BaconBox18KeyboardSignalDataC1ERKNS_13KeyboardStateE
_ZN8BaconBox18SizeComponentProxy7getSizeEv
_ZN8BaconBox18SizeComponentProxy8getWidthEv
_ZN8BaconBox18SizeComponentProxy9getHeightEv
_ZN8BaconBox18SizeComponentProxyC1EPNS_6EntityE
_ZN8BaconBox18TextComponentProxy12setAlignmentENS_13TextAlignment4typeE
_ZN8BaconBox18TextComponentProxy7getFontEv
_ZN8BaconBox18TextComponentProxy7getSizeEv
_ZN8BaconBox18TextComponentProxy7setFontEPNS_4FontE
_ZN8BaconBox18TextComponentProxy7setSizeENS_6VectorIfLj2EEE
_ZN8BaconBox18TextComponentProxy7setTextERKSs
_ZN8BaconBox18TextComponentProxyC1EPNS_6EntityEPNS_4FontEb
_ZN8BaconBox18TextureInformationC1EjjRKSs
_ZN8BaconBox18TextureInformationC1Ev
_ZN8BaconBox19ColorTransformProxy14setColorOffsetEffff
_ZN8BaconBox19ColorTransformProxy17getColorTransformEv
_ZN8BaconBox19ColorTransformProxy18setAlphaMultiplierEf
_ZN8BaconBox19ColorTransformProxy18setColorMultiplierEffff
_ZN8BaconBox19ColorTransformProxy20getConcatColorMatrixEv
_ZN8BaconBox19ColorTransformProxy8getColorEv
_ZN8BaconBox19ColorTransformProxy8setColorERKNS_5ColorE
_ZN8BaconBox19ColorTransformProxyC1EPNS_6EntityE
_ZN8BaconBox19ResourcePathHandler12createFolderERKSs
_ZN8BaconBox19ResourcePathHandler12folderExistsERKSs
_ZN8BaconBox19ResourcePathHandler14isFileReadableERKSs
_ZN8BaconBox19ResourcePathHandler14isFileWritableERKSs
_ZN8BaconBox19ResourcePathHandler15getDocumentPathEv
_ZN8BaconBox19ResourcePathHandler15getResourcePathEv
_ZN8BaconBox19ResourcePathHandler16createFolderTreeERKSs
_ZN8BaconBox19ResourcePathHandler18getDocumentPathForERKSs
_ZN8BaconBox19ResourcePathHandler18getResourcePathForERKSs
_ZN8BaconBox19ResourcePathHandler19getPathFromFilenameESs
_ZN8BaconBox19ResourcePathHandler20createDocumentFolderERKSs
_ZN8BaconBox20EntityContainerProxy10addChildAtEPNS_15MovieClipEntityEi
_ZN8BaconBox20EntityContainerProxy10getChildAtEi
_ZN8BaconBox20EntityContainerProxy11removeChildEPNS_15MovieClipEntityE
_ZN8BaconBox20EntityContainerProxy12swapChildrenEPNS_15MovieClipEntityES2_
_ZN8BaconBox20EntityContainerProxy13removeChildAtEi
_ZN8BaconBox20EntityContainerProxy13setChildIndexEPNS_15MovieClipEntityEi
_ZN8BaconBox20EntityContainerProxy14getChildByNameERKSs
_ZN8BaconBox20EntityContainerProxy14removeChildrenEii
_ZN8BaconBox20EntityContainerProxy14swapChildrenAtEii
_ZN8BaconBox20EntityContainerProxy16propagateMessageEiiiPv
_ZN8BaconBox20EntityContainerProxy20getObjectsUnderPointERKNS_6VectorIfLj2EEE
_ZN8BaconBox20EntityContainerProxy8addChildEPNS_15MovieClipEntityE
_ZN8BaconBox20EntityContainerProxyC1EPNS_15MovieClipEntityE
_ZN8BaconBox20MatrixComponentProxy15getConcatMatrixEv
_ZN8BaconBox20MatrixComponentProxy18getMatrixComponentEv
_ZN8BaconBox20MatrixComponentProxy9getMatrixEv
_ZN8BaconBox20MatrixComponentProxy9setMatrixERKNS_6MatrixE
_ZN8BaconBox20MatrixComponentProxyC1EPNS_6EntityE
_ZN8BaconBox20SymbolComponentProxy9getSymbolEv
_ZN8BaconBox20SymbolComponentProxy9setSymbolEPNS_6SymbolE
_ZN8BaconBox20SymbolComponentProxyC1EPNS_6EntityEb
_ZN8BaconBox22AxisAlignedBoundingBox11getPositionEv
_ZN8BaconBox22AxisAlignedBoundingBox11setPositionERKNS_6VectorIfLj2EEE
_ZN8BaconBox22AxisAlignedBoundingBox11setPositionEff
_ZN8BaconBox22AxisAlignedBoundingBox12setXPositionEf
_ZN8BaconBox22AxisAlignedBoundingBox12setYPositionEf
_ZN8BaconBox22AxisAlignedBoundingBox4moveERKNS_6VectorIfLj2EEE
_ZN8BaconBox22AxisAlignedBoundingBox4moveEff
_ZN8BaconBox22AxisAlignedBoundingBox5moveXEf
_ZN8BaconBox22AxisAlignedBoundingBox5moveYEf
_ZN8BaconBox22AxisAlignedBoundingBox7getSizeEv
_ZN8BaconBox22AxisAlignedBoundingBox7setSizeERKNS_6VectorIfLj2EEE
_ZN8BaconBox22AxisAlignedBoundingBox7setSizeEff
_ZN8BaconBox22AxisAlignedBoundingBox8setWidthEf
_ZN8BaconBox22AxisAlignedBoundingBox9setHeightEf
_ZN8BaconBox22AxisAlignedBoundingBoxC1ERKNS_6VectorIfLj2EEES4_
_ZN8BaconBox22AxisAlignedBoundingBoxC1ERKS0_
_ZN8BaconBox22AxisAlignedBoundingBoxC1Ev
_ZN8BaconBox23PointerButtonSignalDataC1ERKNS_12PointerStateEji
_ZN8BaconBox3Key10APOSTROPHEE
_ZN8BaconBox3Key10CIRCUMFLEXE
_ZN8BaconBox3Key10LEFT_SHIFTE
_ZN8BaconBox3Key10MEDIA_STOPE
_ZN8BaconBox3Key10OPEN_BRACEE
_ZN8BaconBox3Key10OPEN_PARENE
_ZN8BaconBox3Key10OPEN_QUOTEE
_ZN8BaconBox3Key10UNDERSCOREE
_ZN8BaconBox3Key11CLOSE_BRACEE
_ZN8BaconBox3Key11CLOSE_PARENE
_ZN8BaconBox3Key11IME_CONVERTE
_ZN8BaconBox3Key11LAUNCH_MAILE
_ZN8BaconBox3Key11NUMBER_SIGNE
_ZN8BaconBox3Key11PROCESS_KEYE
_ZN8BaconBox3Key11RIGHT_SHIFTE
_ZN8BaconBox3Key11VOLUME_DOWNE
_ZN8BaconBox3Key11VOLUME_MUTEE
_ZN8BaconBox3Key12BROWSER_BACKE
_ZN8BaconBox3Key12BROWSER_HOMEE
_ZN8BaconBox3Key12BROWSER_STOPE
_ZN8BaconBox3Key12LEFT_CONTROLE
_ZN8BaconBox3Key12LEFT_WINDOWSE
_ZN8BaconBox3Key12PRINT_SCREENE
_ZN8BaconBox3Key12SELECT_MEDIAE
_ZN8BaconBox3Key13NUM_PAD_ENTERE
_ZN8BaconBox3Key13NUM_PAD_EQUALE
_ZN8BaconBox3Key13OPEN_BRACKETSE
_ZN8BaconBox3Key13RIGHT_CONTROLE
_ZN8BaconBox3Key13RIGHT_WINDOWSE
_ZN8BaconBox3Key14BROWSER_SEARCHE
_ZN8BaconBox3Key14CHAT_PAD_GREENE
_ZN8BaconBox3Key14CLOSE_BRACKETSE
_ZN8BaconBox3Key14IME_NO_CONVERTE
_ZN8BaconBox3Key14NUM_PAD_PERIODE
_ZN8BaconBox3Key15BROWSER_FORWARDE
_ZN8BaconBox3Key15BROWSER_REFRESHE
_ZN8BaconBox3Key15CHAT_PAD_ORANGEE
_ZN8BaconBox3Key16MEDIA_NEXT_TRACKE
_ZN8BaconBox3Key16MEDIA_PLAY_PAUSEE
_ZN8BaconBox3Key17BROWSER_FAVORITESE
_ZN8BaconBox3Key1AE
_ZN8BaconBox3Key1BE
_ZN8BaconBox3Key1CE
_ZN8BaconBox3Key1DE
_ZN8BaconBox3Key1EE
_ZN8BaconBox3Key1FE
_ZN8BaconBox3Key1GE
_ZN8BaconBox3Key1HE
_ZN8BaconBox3Key1IE
_ZN8BaconBox3Key1JE
_ZN8BaconBox3Key1KE
_ZN8BaconBox3Key1LE
_ZN8BaconBox3Key1ME
_ZN8BaconBox3Key1NE
_ZN8BaconBox3Key1OE
_ZN8BaconBox3Key1PE
_ZN8BaconBox3Key1QE
_ZN8BaconBox3Key1RE
_ZN8BaconBox3Key1SE
_ZN8BaconBox3Key1TE
_ZN8BaconBox3Key1UE
_ZN8BaconBox3Key1VE
_ZN8BaconBox3Key1WE
_ZN8BaconBox3Key1XE
_ZN8BaconBox3Key1YE
_ZN8BaconBox3Key1ZE
_ZN8BaconBox3Key20LAUNCH_APPLICATION_1E
_ZN8BaconBox3Key20LAUNCH_APPLICATION_2E
_ZN8BaconBox3Key20MEDIA_PREVIOUS_TRACKE
_ZN8BaconBox3Key2ATE
_ZN8BaconBox3Key2D0E
_ZN8BaconBox3Key2D1E
_ZN8BaconBox3Key2D2E
_ZN8BaconBox3Key2D3E
_ZN8BaconBox3Key2D4E
_ZN8BaconBox3Key2D5E
_ZN8BaconBox3Key2D6E
_ZN8BaconBox3Key2D7E
_ZN8BaconBox3Key2D8E
_ZN8BaconBox3Key2D9E
_ZN8BaconBox3Key2F1E
_ZN8BaconBox3Key2F2E
_ZN8BaconBox3Key2F3E
_ZN8BaconBox3Key2F4E
_ZN8BaconBox3Key2F5E
_ZN8BaconBox3Key2F6E
_ZN8BaconBox3Key2F7E
_ZN8BaconBox3Key2F8E
_ZN8BaconBox3Key2F9E
_ZN8BaconBox3Key2UPE
_ZN8BaconBox3Key3ADDE
_ZN8BaconBox3Key3BARE
_ZN8BaconBox3Key3CUTE
_ZN8BaconBox3Key3ENDE
_ZN8BaconBox3Key3F10E
_ZN8BaconBox3Key3F11E
_ZN8BaconBox3Key3F12E
_ZN8BaconBox3Key3F13E
_ZN8BaconBox3Key3F14E
_ZN8BaconBox3Key3F15E
_ZN8BaconBox3Key3F16E
_ZN8BaconBox3Key3F17E
_ZN8BaconBox3Key3F18E
_ZN8BaconBox3Key3F19E
_ZN8BaconBox3Key3F20E
_ZN8BaconBox3Key3F21E
_ZN8BaconBox3Key3F22E
_ZN8BaconBox3Key3F23E
_ZN8BaconBox3Key3F24E
_ZN8BaconBox3Key3TABE
_ZN8BaconBox3Key4APPSE
_ZN8BaconBox3Key4ATTNE
_ZN8BaconBox3Key4AUTOE
_ZN8BaconBox3Key4COPYE
_ZN8BaconBox3Key4DOWNE
_ZN8BaconBox3Key4FINDE
_ZN8BaconBox3Key4HELPE
_ZN8BaconBox3Key4HOMEE
_ZN8BaconBox3Key4KANAE
_ZN8BaconBox3Key4LEFTE
_ZN8BaconBox3Key4LESSE
_ZN8BaconBox3Key4NBSPE
_ZN8BaconBox3Key4NONEE
_ZN8BaconBox3Key4PA_1E
_ZN8BaconBox3Key4PIPEE
_ZN8BaconBox3Key4PLAYE
_ZN8BaconBox3Key4PLUSE
_ZN8BaconBox3Key4REDOE
_ZN8BaconBox3Key4UNDOE
_ZN8BaconBox3Key4ZOOME
_ZN8BaconBox3Key5CLEARE
_ZN8BaconBox3Key5COLONE
_ZN8BaconBox3Key5COMMAE
_ZN8BaconBox3Key5CRSELE
_ZN8BaconBox3Key5EJECTE
_ZN8BaconBox3Key5ENL_WE
_ZN8BaconBox3Key5ENTERE
_ZN8BaconBox3Key5EQUALE
_ZN8BaconBox3Key5EXSELE
_ZN8BaconBox3Key5GRAVEE
_ZN8BaconBox3Key5KANJIE
_ZN8BaconBox3Key5MINUSE
_ZN8BaconBox3Key5PASTEE
_ZN8BaconBox3Key5PAUSEE
_ZN8BaconBox3Key5POWERE
_ZN8BaconBox3Key5PRINTE
_ZN8BaconBox3Key5RIGHTE
_ZN8BaconBox3Key5SLASHE
_ZN8BaconBox3Key5SLEEPE
_ZN8BaconBox3Key5SPACEE
_ZN8BaconBox3Key5TILDEE
_ZN8BaconBox3Key6CANCELE
_ZN8BaconBox3Key6DIVIDEE
_ZN8BaconBox3Key6DOLLARE
_ZN8BaconBox3Key6ESCAPEE
_ZN8BaconBox3Key6EXCLAME
_ZN8BaconBox3Key6INSERTE
_ZN8BaconBox3Key6PERIODE
_ZN8BaconBox3Key6QUOTESE
_ZN8BaconBox3Key6SCROLLE
_ZN8BaconBox3Key6SELECTE
_ZN8BaconBox3Key6SYSREQE
_ZN8BaconBox3Key6toCharEi
_ZN8BaconBox3Key7DECIMALE
_ZN8BaconBox3Key7EXECUTEE
_ZN8BaconBox3Key7GREATERE
_ZN8BaconBox3Key7INVALIDE
_ZN8BaconBox3Key7NB_KEYSE
_ZN8BaconBox3Key7PAGE_UPE
_ZN8BaconBox3Key7PERCENTE
_ZN8BaconBox3Key8ASTERISKE
_ZN8BaconBox3Key8LEFT_ALTE
_ZN8BaconBox3Key8MULTIPLYE
_ZN8BaconBox3Key8NUM_LOCKE
_ZN8BaconBox3Key8QUESTIONE
_ZN8BaconBox3Key8SUBTRACTE
_ZN8BaconBox3Key9AMPERSANDE
_ZN8BaconBox3Key9BACKSLASHE
_ZN8BaconBox3Key9BACKSPACEE
_ZN8BaconBox3Key9CAPS_LOCKE
_ZN8BaconBox3Key9DELETEKEYE
_ZN8BaconBox3Key9ERASE_EOFE
_ZN8BaconBox3Key9NUM_PAD_0E
_ZN8BaconBox3Key9NUM_PAD_1E
_ZN8BaconBox3Key9NUM_PAD_2E
_ZN8BaconBox3Key9NUM_PAD_3E
_ZN8BaconBox3Key9NUM_PAD_4E
_ZN8BaconBox3Key9NUM_PAD_5E
_ZN8BaconBox3Key9NUM_PAD_6E
_ZN8BaconBox3Key9NUM_PAD_7E
_ZN8BaconBox3Key9NUM_PAD_8E
_ZN8BaconBox3Key9NUM_PAD_9E
_ZN8BaconBox3Key9PAGE_DOWNE
_ZN8BaconBox3Key9RIGHT_ALTE
_ZN8BaconBox3Key9SEMICOLONE
_ZN8BaconBox3Key9SEPARATORE
_ZN8BaconBox3Key9VOLUME_UPE
_ZN8BaconBox4Font12getPixelSizeEv
_ZN8BaconBox4Font7setNameERKSs
_ZN8BaconBox4Font9getFormatEv
_ZN8BaconBox4FontC1ERKSs
_ZN8BaconBox4FontC1Ev
_ZN8BaconBox5Color11deserializeERKNS_5ValueE
_ZN8BaconBox5Color12isValidValueERKNS_5ValueE
_ZN8BaconBox5Color13getComponentsEv
_ZN8BaconBox5Color13setSaturationEf
_ZN8BaconBox5Color19MAX_COMPONENT_VALUEE
_ZN8BaconBox5Color22MAX_COMPONENT_VALUE_32E
_ZN8BaconBox5Color3REDE
_ZN8BaconBox5Color4AQUAE
_ZN8BaconBox5Color4BLUEE
_ZN8BaconBox5Color4GRAYE
_ZN8BaconBox5Color4LIMEE
_ZN8BaconBox5Color4NAVYE
_ZN8BaconBox5Color4TEALE
_ZN8BaconBox5Color5BLACKE
_ZN8BaconBox5Color5GREENE
_ZN8BaconBox5Color5OLIVEE
_ZN8BaconBox5Color5WHITEE
_ZN8BaconBox5Color6MAROONE
_ZN8BaconBox5Color6PURPLEE
_ZN8BaconBox5Color6SILVERE
_ZN8BaconBox5Color6YELLOWE
_ZN8BaconBox5Color6setHSVENS0_3HSVE
_ZN8BaconBox5Color6setHueEf
_ZN8BaconBox5Color6setRGBEfff
_ZN8BaconBox5Color6setRGBEiii
_ZN8BaconBox5Color6setRGBEj
_ZN8BaconBox5Color6setRedEf
_ZN8BaconBox5Color6setRedEi
_ZN8BaconBox5Color7FUCHSIAE
_ZN8BaconBox5Color7setBlueEf
_ZN8BaconBox5Color7setBlueEi
_ZN8BaconBox5Color7setRGBAERKSs
_ZN8BaconBox5Color7setRGBAEffff
_ZN8BaconBox5Color7setRGBAEiiii
_ZN8BaconBox5Color7setRGBAEj
_ZN8BaconBox5Color8NO_COLORE
_ZN8BaconBox5Color8setAlphaEf
_ZN8BaconBox5Color8setAlphaEi
_ZN8BaconBox5Color8setGreenEf
_ZN8BaconBox5Color8setGreenEi
_ZN8BaconBox5Color8setValueEf
_ZN8BaconBox5Color9normalizeEi
_ZN8BaconBox5ColorC1ERKS0_
_ZN8BaconBox5ColorC1ERKSs
_ZN8BaconBox5ColorC1Effff
_ZN8BaconBox5ColorC1Eiiii
_ZN8BaconBox5ColorC1Ej
_ZN8BaconBox5ColorC1Ev
_ZN8BaconBox5ColoraSERKS0_
_ZN8BaconBox5ColoreqERKS0_
_ZN8BaconBox5State12DEFAULT_NAMEE
_ZN8BaconBox5State17MESSAGE_GET_FOCUSE
_ZN8BaconBox5State18MESSAGE_LOST_FOCUSE
_ZN8BaconBox5State20MESSAGE_ADDED_ENTITYE
_ZN8BaconBox5State22MESSAGE_REMOVED_ENTITYE
_ZN8BaconBox5State2IDE
_ZN8BaconBox5State3addEP9lua_State
_ZN8BaconBox5State3addEPNS_6EntityE
_ZN8BaconBox5State6removeEPNS_6EntityE
_ZN8BaconBox5State9getCameraEv
_ZN8BaconBox5StateC1ERKSs
_ZN8BaconBox6CameraC1Ev
_ZN8BaconBox6Engine11applicationEiPPcRKSs
_ZN8BaconBox6Engine11getInstanceEv
_ZN8BaconBox6Engine11removeStateERKSs
_ZN8BaconBox6Engine12onInitializeE
_ZN8BaconBox6Engine13getMainWindowEv
_ZN8BaconBox6Engine14getMusicEngineEv
_ZN8BaconBox6Engine14getSoundEngineEv
_ZN8BaconBox6Engine14getUpdateDelayEv
_ZN8BaconBox6Engine14showMainWindowEv
_ZN8BaconBox6Engine15exitApplicationEi
_ZN8BaconBox6Engine15getCurrentStateEv
_ZN8BaconBox6Engine15isBufferSwappedEv
_ZN8BaconBox6Engine15removeAllStatesEv
_ZN8BaconBox6Engine16getGraphicDriverEv
_ZN8BaconBox6Engine16initializeEngineEjjff
_ZN8BaconBox6Engine16setBufferSwappedEv
_ZN8BaconBox6Engine18getApplicationArgcEv
_ZN8BaconBox6Engine18getApplicationArgvEv
_ZN8BaconBox6Engine18getApplicationNameEv
_ZN8BaconBox6Engine18getApplicationPathEv
_ZN8BaconBox6Engine18getSinceLastRenderEv
_ZN8BaconBox6Engine18getSinceLastUpdateEv
_ZN8BaconBox6Engine19getUpdatesPerSecondEv
_ZN8BaconBox6Engine19setUpdatesPerSecondEd
_ZN8BaconBox6Engine24DEFAULT_APPLICATION_NAMEE
_ZN8BaconBox6Engine26DEFAULT_UPDATES_PER_SECONDE
_ZN8BaconBox6Engine5pulseEv
_ZN8BaconBox6Engine8addStateEP9lua_State
_ZN8BaconBox6Engine8addStateEPNS_5StateE
_ZN8BaconBox6Engine8getStateERKSs
_ZN8BaconBox6Engine9getMinFpsEv
_ZN8BaconBox6Engine9playStateERKSs
_ZN8BaconBox6Engine9setMinFpsEj
_ZN8BaconBox6Entity11sendMessageEiiiPv
_ZN8BaconBox6Entity12addComponentEPNS_9ComponentE
_ZN8BaconBox6Entity15removeComponentEPNS_9ComponentE
_ZN8BaconBox6Entity16removeComponentsEi
_ZN8BaconBox6Entity19printComponentsNameEv
_ZN8BaconBox6Entity21MESSAGE_ADD_COMPONENTE
_ZN8BaconBox6Entity24MESSAGE_REMOVE_COMPONENTE
_ZN8BaconBox6Entity2IDE
_ZN8BaconBox6Entity5clearEv
_ZN8BaconBox6Entity6updateEv
_ZN8BaconBox6Entity9BROADCASTE
_ZN8BaconBox6EntityC1ERKS0_
_ZN8BaconBox6EntityC1Ev
_ZN8BaconBox6Matrix11deserializeERKNS_5ValueE
_ZN8BaconBox6Matrix12isValidValueERKNS_5ValueE
_ZN8BaconBox6Matrix5scaleERKNS_6VectorIfLj2EEE
_ZN8BaconBox6Matrix6concatERKS0_
_ZN8BaconBox6Matrix6rotateEf
_ZN8BaconBox6Matrix9translateERKNS_6VectorIfLj2EEE
_ZN8BaconBox6MatrixC1ERKS0_
_ZN8BaconBox6MatrixC1Effffff
_ZN8BaconBox6MatrixC1Ev
_ZN8BaconBox6MatrixaSERKS0_
_ZN8BaconBox6SymbolC1Ev
_ZN8BaconBox6VectorIfLj2EE2UPE
_ZN8BaconBox6VectorIfLj2EE4ZEROE
_ZN8BaconBox7HasName2IDE
_ZN8BaconBox7HasNameC1ERKSs
_ZN8BaconBox7Pointer10getDefaultEv
_ZN8BaconBox8Keyboard10addMaskKeyERKSsi
_ZN8BaconBox8Keyboard10getDefaultEv
_ZN8BaconBox8Keyboard10removeMaskERKSs
_ZN8BaconBox8Keyboard13removeMaskKeyERKSsi
_ZN8BaconBox8Platform11getInstanceEv
_ZN8BaconBox8Timeline25MESSAGE_NB_FRAMES_CHANGEDE
_ZN8BaconBox8Timeline2IDE
_ZN8BaconBox9Clickable2IDE
_ZN8BaconBox9ClickableC1Ev
_ZN8BaconBox9Component11sendMessageEiiPv
_ZN8BaconBox9Component2IDE
_ZN8BaconBox9ComponentC1ERKS0_
_ZN8BaconBox9ComponentC1Ev
_ZN8BaconBox9IDManager10generateIDERKSs
_ZN8BaconBox9IDManager10generateIDEv
_ZN8BaconBox9IDManager5getIDERKSs
_ZN8BaconBox9IDManager7getNameEi
_ZN8BaconBox9LuaEntity10addHitMaskEPNS_15MovieClipEntityE
_ZN8BaconBox9LuaEntity11setLuaClassEP9lua_State
_ZN8BaconBox9LuaEntity14reloadLuaClassEv
_ZN8BaconBox9LuaEntity2IDE
_ZN8BaconBox9LuaEntityC1Ev
_ZN8BaconBox9LuaHelper14connectSignal0EP9lua_StatePNS_11LuaCallbackE
_ZN8BaconBox9LuaHelper14connectSignal1EP9lua_StatePNS_11LuaCallbackE
_ZN8BaconBox9LuaHelper25getPointerFromLuaUserDataEP9lua_Stateb
_ZN8BaconBox9Transform11setPositionERKNS_6VectorIfLj2EEEb
_ZN8BaconBox9Transform11setRotationEfb
_ZN8BaconBox9Transform17MESSAGE_GET_SCALEE
_ZN8BaconBox9Transform17MESSAGE_SET_SCALEE
_ZN8BaconBox9Transform20MESSAGE_GET_POSITIONE
_ZN8BaconBox9Transform20MESSAGE_GET_ROTATIONE
_ZN8BaconBox9Transform20MESSAGE_SET_POSITIONE
_ZN8BaconBox9Transform20MESSAGE_SET_ROTATIONE
_ZN8BaconBox9Transform21MESSAGE_SCALE_CHANGEDE
_ZN8BaconBox9Transform24MESSAGE_POSITION_CHANGEDE
_ZN8BaconBox9Transform24MESSAGE_ROTATION_CHANGEDE
_ZN8BaconBox9Transform2IDE
_ZN8BaconBox9Transform8setScaleERKNS_6VectorIfLj2EEEb
_ZN8BaconBox9TransformC1ERKS0_
_ZN8BaconBox9TransformC1Ev
_ZN8BaconBox9UIManager12addClickableEP9lua_State
_ZN8BaconBox9UIManager12addClickableEPNS_15MovieClipEntityE
_ZN8BaconBox9UIManager2IDE
_ZN8BaconBox9UIManagerC1Ev
_ZNK8BaconBox10MainWindow14getOrientationEv
_ZNK8BaconBox11ColorMatrix21getPreMultipliedColorERKNS_5ColorE
_ZNK8BaconBox11ColorMatrix9serializeERNS_5ValueEb
_ZNK8BaconBox11ColorMatrixmlERKS0_
_ZNK8BaconBox11CursorState11getPositionEv
_ZNK8BaconBox11CursorState12isButtonHeldEi
_ZNK8BaconBox11CursorState15isButtonPressedEi
_ZNK8BaconBox11CursorState16isButtonReleasedEi
_ZNK8BaconBox11CursorState19getPreviousPositionEv
_ZNK8BaconBox11CursorState8hasMovedEv
_ZNK8BaconBox11MusicEngine14getMusicVolumeEv
_ZNK8BaconBox11MusicEngine7isMutedEv
_ZNK8BaconBox11SoundEngine14getSoundVolumeEv
_ZNK8BaconBox11SoundEngine7isMutedEv
_ZNK8BaconBox12HasNameProxy7getNameEv
_ZNK8BaconBox12PointerState14getCursorStateEj
_ZNK8BaconBox13KeyboardState10maskHasKeyERKSsi
_ZNK8BaconBox13KeyboardState12isKeyPressedEi
_ZNK8BaconBox13KeyboardState13isKeyMaskHeldERKSs
_ZNK8BaconBox13KeyboardState13isKeyReleasedEi
_ZNK8BaconBox13KeyboardState16isKeyMaskPressedERKSs
_ZNK8BaconBox13KeyboardState17isKeyMaskReleasedERKSs
_ZNK8BaconBox13KeyboardState9isKeyHeldEi
_ZNK8BaconBox13TimelineProxy11getNbFramesEv
_ZNK8BaconBox13TimelineProxy15getCurrentFrameEv
_ZNK8BaconBox13TimelineProxy9isPlayingEv
_ZNK8BaconBox14TransformProxy11getPositionEv
_ZNK8BaconBox14TransformProxy11getRotationEv
_ZNK8BaconBox14TransformProxy15getRealPositionEv
_ZNK8BaconBox14TransformProxy8getScaleEv
_ZNK8BaconBox17PointerSignalData11getPositionEv
_ZNK8BaconBox17PointerSignalData12getXPositionEv
_ZNK8BaconBox17PointerSignalData12getYPositionEv
_ZNK8BaconBox17PointerSignalData19getPreviousPositionEv
_ZNK8BaconBox17PointerSignalData20getPreviousXPositionEv
_ZNK8BaconBox17PointerSignalData20getPreviousYPositionEv
_ZNK8BaconBox20EntityContainerProxy10getChildAtEi
_ZNK8BaconBox20EntityContainerProxy13getChildIndexEPNS_15MovieClipEntityE
_ZNK8BaconBox20EntityContainerProxy13getNbChildrenEv
_ZNK8BaconBox20EntityContainerProxy14getChildByNameERKSs
_ZNK8BaconBox20EntityContainerProxy20getObjectsUnderPointERKNS_6VectorIfLj2EEE
_ZNK8BaconBox20EntityContainerProxy8containsEPNS_15MovieClipEntityE
_ZNK8BaconBox20EntityContainerProxy9getParentEv
_ZNK8BaconBox22AxisAlignedBoundingBox11getPositionEv
_ZNK8BaconBox22AxisAlignedBoundingBox12getXPositionEv
_ZNK8BaconBox22AxisAlignedBoundingBox12getYPositionEv
_ZNK8BaconBox22AxisAlignedBoundingBox17getPositionCenterEv
_ZNK8BaconBox22AxisAlignedBoundingBox18getXPositionCenterEv
_ZNK8BaconBox22AxisAlignedBoundingBox18getYPositionCenterEv
_ZNK8BaconBox22AxisAlignedBoundingBox18isCompletelyInsideERKS0_
_ZNK8BaconBox22AxisAlignedBoundingBox20overlapsVerticalLineEf
_ZNK8BaconBox22AxisAlignedBoundingBox20overlapsVerticalLineEfff
_ZNK8BaconBox22AxisAlignedBoundingBox22overlapsHorizontalLineEf
_ZNK8BaconBox22AxisAlignedBoundingBox22overlapsHorizontalLineEfff
_ZNK8BaconBox22AxisAlignedBoundingBox6getTopEv
_ZNK8BaconBox22AxisAlignedBoundingBox7getLeftEv
_ZNK8BaconBox22AxisAlignedBoundingBox7getSizeEv
_ZNK8BaconBox22AxisAlignedBoundingBox8getRightEv
_ZNK8BaconBox22AxisAlignedBoundingBox8getWidthEv
_ZNK8BaconBox22AxisAlignedBoundingBox8overlapsERKNS_6VectorIfLj2EEE
_ZNK8BaconBox22AxisAlignedBoundingBox8overlapsERKS0_
_ZNK8BaconBox22AxisAlignedBoundingBox8overlapsEff
_ZNK8BaconBox22AxisAlignedBoundingBox9getBottomEv
_ZNK8BaconBox22AxisAlignedBoundingBox9getHeightEv
_ZNK8BaconBox22AxisAlignedBoundingBoxeqERKS0_
_ZNK8BaconBox4Font7getNameEv
_ZNK8BaconBox5Color10getRedUINTEv
_ZNK8BaconBox5Color11getBlueUINTEv
_ZNK8BaconBox5Color12getAlphaUINTEv
_ZNK8BaconBox5Color12getGreenUINTEv
_ZNK8BaconBox5Color13getComponentsEv
_ZNK8BaconBox5Color13getSaturationEv
_ZNK8BaconBox5Color6getHSVEv
_ZNK8BaconBox5Color6getHueEv
_ZNK8BaconBox5Color6getRGBEv
_ZNK8BaconBox5Color6getRedEv
_ZNK8BaconBox5Color7getBlueEv
_ZNK8BaconBox5Color7getRGBAEv
_ZNK8BaconBox5Color8getAlphaEv
_ZNK8BaconBox5Color8getGreenEv
_ZNK8BaconBox5Color8getValueEv
_ZNK8BaconBox5Color9serializeERNS_5ValueEb
_ZNK8BaconBox5ColormlERKS0_
_ZNK8BaconBox5ColorplERKS0_
_ZNK8BaconBox5Sound9getVolumeEv
_ZNK8BaconBox5State9getCameraEv
_ZNK8BaconBox6Entity12getComponentERKSs
_ZNK8BaconBox6Entity12getComponentEib
_ZNK8BaconBox6Entity13getComponentsEv
_ZNK8BaconBox6Entity13getEntityNameEv
_ZNK8BaconBox6Matrix18multiplyWithVectorERKNS_6VectorIfLj2EEE
_ZNK8BaconBox6Matrix9serializeERNS_5ValueEb
_ZNK8BaconBox6MatrixmlERKS0_
_ZNK8BaconBox7Pointer11getPositionEj
_ZNK8BaconBox7Pointer12isButtonHeldEij
_ZNK8BaconBox7Pointer15isButtonPressedEij
_ZNK8BaconBox7Pointer16isButtonReleasedEij
_ZNK8BaconBox7Pointer19getPreviousPositionEj
_ZNK8BaconBox7Pointer8getStateEv
_ZNK8BaconBox7Pointer8hasMovedEj
_ZNK8BaconBox8Keyboard10maskHasKeyERKSsi
_ZNK8BaconBox8Keyboard12isKeyPressedEi
_ZNK8BaconBox8Keyboard13isKeyMaskHeldERKSs
_ZNK8BaconBox8Keyboard13isKeyReleasedEi
_ZNK8BaconBox8Keyboard16isKeyMaskPressedERKSs
_ZNK8BaconBox8Keyboard17isKeyMaskReleasedERKSs
_ZNK8BaconBox8Keyboard8getStateEv
_ZNK8BaconBox8Keyboard9isKeyHeldEi
_ZNK8BaconBox9Component16getComponentNameEv
_ZNK8BaconBox9Component9getEntityEv
_ZNK8BaconBox9Transform11getRotationEv
_ZNK8BaconBox9Transform8getScaleEv
_ZNKSs4dataEv
_ZNKSs4sizeEv
_ZNKSs5c_strEv
_ZNKSs5emptyEv
_ZNKSs6lengthEv
_ZNSaIcEC1Ev
_ZNSaIcED1Ev
_ZNSolsEPFRSoS_E
_ZNSs6assignEPKc
_ZNSs6assignEPKcj
_ZNSsC1EPKcRKSaIcE
_ZNSsC1ERKSs
_ZNSsC1Ev
_ZNSsD1Ev
_ZNSsaSERKSs
_ZNSt15_List_node_base4hookEPS_
_ZNSt15_List_node_base6unhookEv
_ZNSt15_List_node_base8transferEPS_S0_
_ZNSt8ios_base4InitC1Ev
_ZNSt8ios_base4InitD1Ev
_ZSt17__throw_bad_allocv
_ZSt18_Rb_tree_decrementPSt18_Rb_tree_node_base
_ZSt18_Rb_tree_incrementPKSt18_Rb_tree_node_base
_ZSt18_Rb_tree_incrementPSt18_Rb_tree_node_base
_ZSt28_Rb_tree_rebalance_for_erasePSt18_Rb_tree_node_baseRS_
_ZSt29_Rb_tree_insert_and_rebalancebPSt18_Rb_tree_node_baseS0_RS_
_ZSt4cerr
_ZSt4cout
_ZSt4endlIcSt11char_traitsIcEERSt13basic_ostreamIT_T0_ES6_
_ZSt9terminatev
_ZStlsISt11char_traitsIcEERSt13basic_ostreamIcT_ES5_PKc
_ZTIN8BaconBox17PointerSignalDataE
_ZTVN10__cxxabiv117__class_type_infoE
_ZTVN10__cxxabiv120__si_class_type_infoE
_ZTVN8BaconBox13KeySignalDataE
_ZTVN8BaconBox17KeyMaskSignalDataE
_ZTVN8BaconBox17PointerSignalDataE
_ZTVN8BaconBox18KeyboardSignalDataE
_ZTVN8BaconBox4FontE
_ZdlPv
_Znwj
__assert
__cxa_begin_catch
__cxa_end_catch
__cxa_pure_virtual
__cxa_rethrow
__gxx_personality_sj0
__stderrp
_acosf
_cosf
_fprintf
_luaL_checklstring
_luaL_loadstring
_lua_callk
_lua_createtable
_lua_error
_lua_getfield
_lua_getmetatable
_lua_gettop
_lua_iscfunction
_lua_isnumber
_lua_isstring
_lua_isuserdata
_lua_newuserdata
_lua_pcallk
_lua_pushboolean
_lua_pushcclosure
_lua_pushfstring
_lua_pushlightuserdata
_lua_pushlstring
_lua_pushnil
_lua_pushnumber
_lua_pushstring
_lua_pushvalue
_lua_rawget
_lua_rawgeti
_lua_rawlen
_lua_rawset
_lua_remove
_lua_setmetatable
_lua_settop
_lua_toboolean
_lua_tolstring
_lua_tonumberx
_lua_touserdata
_lua_type
_lua_typename
_sinf
_sprintf
_sqrtf
_strcmp
_strlen



_Unwind_SjLj_Resume
_ZN3AS35local3varC1ERKS1_
_ZN3AS35local3varD1Ev
_ZN3AS35local3varaSES1_
_ZN8BaconBox10AABBHitBox2IDE
_ZN8BaconBox10AABBHitBox7setAABBERKNS_22AxisAlignedBoundingBoxE
_ZN8BaconBox10InputStateC1Ev
_ZN8BaconBox10MainWindow11getInstanceEv
_ZN8BaconBox10MainWindow12DEFAULT_NAMEE
_ZN8BaconBox10MainWindow12releaseInputEv
_ZN8BaconBox10MainWindow14setOrientationENS_17WindowOrientation4typeE
_ZN8BaconBox10MainWindow15getContextWidthEv
_ZN8BaconBox10MainWindow16getContextHeightEv
_ZN8BaconBox10MainWindow18getResolutionWidthEv
_ZN8BaconBox10MainWindow19getResolutionHeightEv
_ZN8BaconBox10MainWindow9grabInputEv
_ZN8BaconBox10MathHelper12AngleConvertIfE18DEGREES_TO_RADIANSE
_ZN8BaconBox10MathHelper12AngleConvertIfE18RADIANS_TO_DEGREESE
_ZN8BaconBox10SignalDataC1Ev
_ZN8BaconBox10TextEntity2IDE
_ZN8BaconBox10TextEntityC1EPNS_4FontE
_ZN8BaconBox10TextEntityC1Ev
_ZN8BaconBox11AudioEngine11playSoundFXERKSsi
_ZN8BaconBox11AudioEngine14getMusicEngineEv
_ZN8BaconBox11AudioEngine14getSoundEngineEv
_ZN8BaconBox11AudioEngine19playBackgroundMusicERKSsid
_ZN8BaconBox11ColorMatrix11deserializeERKNS_5ValueE
_ZN8BaconBox11ColorMatrix18setAlphaMultiplierEf
_ZN8BaconBox11ColorMatrix6concatERKS0_
_ZN8BaconBox11ColorMatrixC1ERKS0_
_ZN8BaconBox11ColorMatrixC1Effffffff
_ZN8BaconBox11ColorMatrixC1Ev
_ZN8BaconBox11ColorMatrixaSERKS0_
_ZN8BaconBox11CursorStateC1Eff
_ZN8BaconBox11LuaCallback4callEPv
_ZN8BaconBox11LuaCallback4callEv
_ZN8BaconBox11LuaCallbackC1EP9lua_StateRKSs
_ZN8BaconBox11MusicEngine4muteEv
_ZN8BaconBox11MusicEngine6unmuteEv
_ZN8BaconBox11MusicEngine8setMutedEb
_ZN8BaconBox11SoundEngine4muteEv
_ZN8BaconBox11SoundEngine6unmuteEv
_ZN8BaconBox11SoundEngine8setMutedEb
_ZN8BaconBox12CursorButton10NB_BUTTONSE
_ZN8BaconBox12CursorButton11SCROLL_DOWNE
_ZN8BaconBox12CursorButton14OTHER_BUTTON_1E
_ZN8BaconBox12CursorButton14OTHER_BUTTON_2E
_ZN8BaconBox12CursorButton14OTHER_BUTTON_3E
_ZN8BaconBox12CursorButton14OTHER_BUTTON_4E
_ZN8BaconBox12CursorButton14OTHER_BUTTON_5E
_ZN8BaconBox12CursorButton14OTHER_BUTTON_6E
_ZN8BaconBox12CursorButton14OTHER_BUTTON_7E
_ZN8BaconBox12CursorButton14OTHER_BUTTON_8E
_ZN8BaconBox12CursorButton14OTHER_BUTTON_9E
_ZN8BaconBox12CursorButton15OTHER_BUTTON_10E
_ZN8BaconBox12CursorButton15OTHER_BUTTON_11E
_ZN8BaconBox12CursorButton15OTHER_BUTTON_12E
_ZN8BaconBox12CursorButton15OTHER_BUTTON_13E
_ZN8BaconBox12CursorButton15OTHER_BUTTON_14E
_ZN8BaconBox12CursorButton15OTHER_BUTTON_15E
_ZN8BaconBox12CursorButton15OTHER_BUTTON_16E
_ZN8BaconBox12CursorButton15OTHER_BUTTON_17E
_ZN8BaconBox12CursorButton15OTHER_BUTTON_18E
_ZN8BaconBox12CursorButton15OTHER_BUTTON_19E
_ZN8BaconBox12CursorButton15OTHER_BUTTON_20E
_ZN8BaconBox12CursorButton4LEFTE
_ZN8BaconBox12CursorButton5RIGHTE
_ZN8BaconBox12CursorButton6MIDDLEE
_ZN8BaconBox12CursorButton7INVALIDE
_ZN8BaconBox12CursorButton9SCROLL_UPE
_ZN8BaconBox12HasNameProxy7setNameERKSs
_ZN8BaconBox12HasNameProxyC1EPNS_6EntityERKSsb
_ZN8BaconBox12PointerState18DEFAULT_NB_CURSORSE
_ZN8BaconBox12PointerStateC1Ej
_ZN8BaconBox13EntityFactory11getInstanceEv
_ZN8BaconBox13EntityFactory13getTextEntityERKSs
_ZN8BaconBox13EntityFactory17initMovieClipPoolEi
_ZN8BaconBox13EntityFactory18getMovieClipEntityERKSsb
_ZN8BaconBox13EntityFactory26internalGetMovieClipEntityERKSsb
_ZN8BaconBox13KeySignalDataC1ERKNS_13KeyboardStateEi
_ZN8BaconBox13KeySignalDataD1Ev
_ZN8BaconBox13KeyboardStateC1Ev
_ZN8BaconBox13SizeComponent2IDE
_ZN8BaconBox13TextComponent12setAlignmentENS_13TextAlignment4typeE
_ZN8BaconBox13TextComponent20MESSAGE_FONT_CHANGEDE
_ZN8BaconBox13TextComponent20MESSAGE_SIZE_CHANGEDE
_ZN8BaconBox13TextComponent20MESSAGE_TEXT_CHANGEDE
_ZN8BaconBox13TextComponent25MESSAGE_ALIGNMENT_CHANGEDE
_ZN8BaconBox13TextComponent2IDE
_ZN8BaconBox13TextComponent7getFontEv
_ZN8BaconBox13TextComponent7getSizeEv
_ZN8BaconBox13TextComponent7setFontEPNS_4FontE
_ZN8BaconBox13TextComponent7setSizeENS_6VectorIfLj2EEE
_ZN8BaconBox13TextComponent7setTextERKSs
_ZN8BaconBox13TextComponentC1Ev
_ZN8BaconBox13TimelineProxy11gotoAndPlayERKSs
_ZN8BaconBox13TimelineProxy11gotoAndPlayEi
_ZN8BaconBox13TimelineProxy11gotoAndStopERKSs
_ZN8BaconBox13TimelineProxy11gotoAndStopEi
_ZN8BaconBox13TimelineProxy4playEv
_ZN8BaconBox13TimelineProxy4stopEv
_ZN8BaconBox13TimelineProxy9nextFrameEv
_ZN8BaconBox13TimelineProxy9prevFrameEv
_ZN8BaconBox13TimelineProxyC1EPNS_6EntityE
_ZN8BaconBox14ClickableProxyC1EPNS_6EntityEb
_ZN8BaconBox14ColorTransform21MESSAGE_COLOR_CHANGEDE
_ZN8BaconBox14ColorTransform2IDE
_ZN8BaconBox14ColorTransform8getColorEv
_ZN8BaconBox14ColorTransform8setColorERKNS_5ColorE
_ZN8BaconBox14LuaEntityProxy10addHitMaskEPNS_15MovieClipEntityE
_ZN8BaconBox14LuaEntityProxy11setLuaClassEP9lua_State
_ZN8BaconBox14LuaEntityProxy14reloadLuaClassEv
_ZN8BaconBox14LuaEntityProxyC1EPNS_6EntityEb
_ZN8BaconBox14SubTextureInfoC1EPNS_18TextureInformationENS_6VectorIfLj2EEES4_
_ZN8BaconBox14TransformProxy11setPositionERKNS_6VectorIfLj2EEE
_ZN8BaconBox14TransformProxy11setRotationEf
_ZN8BaconBox14TransformProxy8setScaleERKNS_6VectorIfLj2EEE
_ZN8BaconBox14TransformProxyC1EPNS_6EntityEb
_ZN8BaconBox14UIManagerProxy12addClickableEP9lua_State
_ZN8BaconBox14UIManagerProxy12addClickableEPNS_15MovieClipEntityE
_ZN8BaconBox14UIManagerProxyC1EPNS_6EntityEb
_ZN8BaconBox15AABBHitBoxProxy7getAABBEv
_ZN8BaconBox15AABBHitBoxProxy7setAABBERKNS_22AxisAlignedBoundingBoxE
_ZN8BaconBox15AABBHitBoxProxyC1EPNS_6EntityEb
_ZN8BaconBox15EntityContainer2IDE
_ZN8BaconBox15InputSignalDataC1Ev
_ZN8BaconBox15MatrixComponent22MESSAGE_MATRIX_CHANGEDE
_ZN8BaconBox15MatrixComponent2IDE
_ZN8BaconBox15MovieClipEntity2IDE
_ZN8BaconBox15MovieClipEntityC1ERKS0_
_ZN8BaconBox15MovieClipEntityC1Ev
_ZN8BaconBox15ResourceManager10removeFontERKSs
_ZN8BaconBox15ResourceManager11removeMusicERKSs
_ZN8BaconBox15ResourceManager11removeSoundERKSs
_ZN8BaconBox15ResourceManager13removeTextureERKSs
_ZN8BaconBox15ResourceManager19loadMusicFromBundleERKSsS2_b
_ZN8BaconBox15ResourceManager19loadSoundFromBundleERKSsS2_b
_ZN8BaconBox15ResourceManager20loadFlashExporterXMLERKSsS2_
_ZN8BaconBox15ResourceManager20loadFontRelativePathERKSsS2_b
_ZN8BaconBox15ResourceManager21loadMusicRelativePathERKSsS2_b
_ZN8BaconBox15ResourceManager21loadSoundRelativePathERKSsS2_b
_ZN8BaconBox15ResourceManager7getFontERKSs
_ZN8BaconBox15ResourceManager8getMusicERKSs
_ZN8BaconBox15ResourceManager8getSoundERKSs
_ZN8BaconBox15ResourceManager8loadFontERKSsS2_b
_ZN8BaconBox15ResourceManager9loadMusicERKSsS2_b
_ZN8BaconBox15ResourceManager9loadSoundERKSsS2_b
_ZN8BaconBox15SymbolComponent2IDE
_ZN8BaconBox15SymbolComponent9getSymbolEv
_ZN8BaconBox15SymbolComponent9setSymbolEPNS_6SymbolE
_ZN8BaconBox15SymbolComponentC1Ev
_ZN8BaconBox17KeyMaskSignalDataC1ERKNS_13KeyboardStateERKSs
_ZN8BaconBox17KeyMaskSignalDataD1Ev
_ZN8BaconBox17PointerSignalDataC1ERKNS_12PointerStateEj
_ZN8BaconBox17PointerSignalDataD1Ev
_ZN8BaconBox17PointerSignalDataD2Ev
_ZN8BaconBox18KeyboardSignalDataC1ERKNS_13KeyboardStateE
_ZN8BaconBox18SizeComponentProxy7getSizeEv
_ZN8BaconBox18SizeComponentProxy8getWidthEv
_ZN8BaconBox18SizeComponentProxy9getHeightEv
_ZN8BaconBox18SizeComponentProxyC1EPNS_6EntityE
_ZN8BaconBox18TextComponentProxy12setAlignmentENS_13TextAlignment4typeE
_ZN8BaconBox18TextComponentProxy7getFontEv
_ZN8BaconBox18TextComponentProxy7getSizeEv
_ZN8BaconBox18TextComponentProxy7setFontEPNS_4FontE
_ZN8BaconBox18TextComponentProxy7setSizeENS_6VectorIfLj2EEE
_ZN8BaconBox18TextComponentProxy7setTextERKSs
_ZN8BaconBox18TextComponentProxyC1EPNS_6EntityEPNS_4FontEb
_ZN8BaconBox18TextureInformationC1EjjRKSs
_ZN8BaconBox18TextureInformationC1Ev
_ZN8BaconBox19ColorTransformProxy14setColorOffsetEffff
_ZN8BaconBox19ColorTransformProxy17getColorTransformEv
_ZN8BaconBox19ColorTransformProxy18setAlphaMultiplierEf
_ZN8BaconBox19ColorTransformProxy18setColorMultiplierEffff
_ZN8BaconBox19ColorTransformProxy20getConcatColorMatrixEv
_ZN8BaconBox19ColorTransformProxy8getColorEv
_ZN8BaconBox19ColorTransformProxy8setColorERKNS_5ColorE
_ZN8BaconBox19ColorTransformProxyC1EPNS_6EntityE
_ZN8BaconBox19ResourcePathHandler12createFolderERKSs
_ZN8BaconBox19ResourcePathHandler12folderExistsERKSs
_ZN8BaconBox19ResourcePathHandler14isFileReadableERKSs
_ZN8BaconBox19ResourcePathHandler14isFileWritableERKSs
_ZN8BaconBox19ResourcePathHandler15getDocumentPathEv
_ZN8BaconBox19ResourcePathHandler15getResourcePathEv
_ZN8BaconBox19ResourcePathHandler16createFolderTreeERKSs
_ZN8BaconBox19ResourcePathHandler18getDocumentPathForERKSs
_ZN8BaconBox19ResourcePathHandler18getResourcePathForERKSs
_ZN8BaconBox19ResourcePathHandler19getPathFromFilenameESs
_ZN8BaconBox19ResourcePathHandler20createDocumentFolderERKSs
_ZN8BaconBox20EntityContainerProxy10addChildAtEPNS_15MovieClipEntityEi
_ZN8BaconBox20EntityContainerProxy10getChildAtEi
_ZN8BaconBox20EntityContainerProxy11removeChildEPNS_15MovieClipEntityE
_ZN8BaconBox20EntityContainerProxy12swapChildrenEPNS_15MovieClipEntityES2_
_ZN8BaconBox20EntityContainerProxy13removeChildAtEi
_ZN8BaconBox20EntityContainerProxy13setChildIndexEPNS_15MovieClipEntityEi
_ZN8BaconBox20EntityContainerProxy14getChildByNameERKSs
_ZN8BaconBox20EntityContainerProxy14removeChildrenEii
_ZN8BaconBox20EntityContainerProxy14swapChildrenAtEii
_ZN8BaconBox20EntityContainerProxy16propagateMessageEiiiPv
_ZN8BaconBox20EntityContainerProxy20getObjectsUnderPointERKNS_6VectorIfLj2EEE
_ZN8BaconBox20EntityContainerProxy8addChildEPNS_15MovieClipEntityE
_ZN8BaconBox20EntityContainerProxyC1EPNS_15MovieClipEntityE
_ZN8BaconBox20MatrixComponentProxy15getConcatMatrixEv
_ZN8BaconBox20MatrixComponentProxy18getMatrixComponentEv
_ZN8BaconBox20MatrixComponentProxy9getMatrixEv
_ZN8BaconBox20MatrixComponentProxy9setMatrixERKNS_6MatrixE
_ZN8BaconBox20MatrixComponentProxyC1EPNS_6EntityE
_ZN8BaconBox20SymbolComponentProxy9getSymbolEv
_ZN8BaconBox20SymbolComponentProxy9setSymbolEPNS_6SymbolE
_ZN8BaconBox20SymbolComponentProxyC1EPNS_6EntityEb
_ZN8BaconBox22AxisAlignedBoundingBox11getPositionEv
_ZN8BaconBox22AxisAlignedBoundingBox11setPositionERKNS_6VectorIfLj2EEE
_ZN8BaconBox22AxisAlignedBoundingBox11setPositionEff
_ZN8BaconBox22AxisAlignedBoundingBox12setXPositionEf
_ZN8BaconBox22AxisAlignedBoundingBox12setYPositionEf
_ZN8BaconBox22AxisAlignedBoundingBox4moveERKNS_6VectorIfLj2EEE
_ZN8BaconBox22AxisAlignedBoundingBox4moveEff
_ZN8BaconBox22AxisAlignedBoundingBox5moveXEf
_ZN8BaconBox22AxisAlignedBoundingBox5moveYEf
_ZN8BaconBox22AxisAlignedBoundingBox7getSizeEv
_ZN8BaconBox22AxisAlignedBoundingBox7setSizeERKNS_6VectorIfLj2EEE
_ZN8BaconBox22AxisAlignedBoundingBox7setSizeEff
_ZN8BaconBox22AxisAlignedBoundingBox8setWidthEf
_ZN8BaconBox22AxisAlignedBoundingBox9setHeightEf
_ZN8BaconBox22AxisAlignedBoundingBoxC1ERKNS_6VectorIfLj2EEES4_
_ZN8BaconBox22AxisAlignedBoundingBoxC1ERKS0_
_ZN8BaconBox22AxisAlignedBoundingBoxC1Ev
_ZN8BaconBox23PointerButtonSignalDataC1ERKNS_12PointerStateEji
_ZN8BaconBox3Key10APOSTROPHEE
_ZN8BaconBox3Key10CIRCUMFLEXE
_ZN8BaconBox3Key10LEFT_SHIFTE
_ZN8BaconBox3Key10MEDIA_STOPE
_ZN8BaconBox3Key10OPEN_BRACEE
_ZN8BaconBox3Key10OPEN_PARENE
_ZN8BaconBox3Key10OPEN_QUOTEE
_ZN8BaconBox3Key10UNDERSCOREE
_ZN8BaconBox3Key11CLOSE_BRACEE
_ZN8BaconBox3Key11CLOSE_PARENE
_ZN8BaconBox3Key11IME_CONVERTE
_ZN8BaconBox3Key11LAUNCH_MAILE
_ZN8BaconBox3Key11NUMBER_SIGNE
_ZN8BaconBox3Key11PROCESS_KEYE
_ZN8BaconBox3Key11RIGHT_SHIFTE
_ZN8BaconBox3Key11VOLUME_DOWNE
_ZN8BaconBox3Key11VOLUME_MUTEE
_ZN8BaconBox3Key12BROWSER_BACKE
_ZN8BaconBox3Key12BROWSER_HOMEE
_ZN8BaconBox3Key12BROWSER_STOPE
_ZN8BaconBox3Key12LEFT_CONTROLE
_ZN8BaconBox3Key12LEFT_WINDOWSE
_ZN8BaconBox3Key12PRINT_SCREENE
_ZN8BaconBox3Key12SELECT_MEDIAE
_ZN8BaconBox3Key13NUM_PAD_ENTERE
_ZN8BaconBox3Key13NUM_PAD_EQUALE
_ZN8BaconBox3Key13OPEN_BRACKETSE
_ZN8BaconBox3Key13RIGHT_CONTROLE
_ZN8BaconBox3Key13RIGHT_WINDOWSE
_ZN8BaconBox3Key14BROWSER_SEARCHE
_ZN8BaconBox3Key14CHAT_PAD_GREENE
_ZN8BaconBox3Key14CLOSE_BRACKETSE
_ZN8BaconBox3Key14IME_NO_CONVERTE
_ZN8BaconBox3Key14NUM_PAD_PERIODE
_ZN8BaconBox3Key15BROWSER_FORWARDE
_ZN8BaconBox3Key15BROWSER_REFRESHE
_ZN8BaconBox3Key15CHAT_PAD_ORANGEE
_ZN8BaconBox3Key16MEDIA_NEXT_TRACKE
_ZN8BaconBox3Key16MEDIA_PLAY_PAUSEE
_ZN8BaconBox3Key17BROWSER_FAVORITESE
_ZN8BaconBox3Key1AE
_ZN8BaconBox3Key1BE
_ZN8BaconBox3Key1CE
_ZN8BaconBox3Key1DE
_ZN8BaconBox3Key1EE
_ZN8BaconBox3Key1FE
_ZN8BaconBox3Key1GE
_ZN8BaconBox3Key1HE
_ZN8BaconBox3Key1IE
_ZN8BaconBox3Key1JE
_ZN8BaconBox3Key1KE
_ZN8BaconBox3Key1LE
_ZN8BaconBox3Key1ME
_ZN8BaconBox3Key1NE
_ZN8BaconBox3Key1OE
_ZN8BaconBox3Key1PE
_ZN8BaconBox3Key1QE
_ZN8BaconBox3Key1RE
_ZN8BaconBox3Key1SE
_ZN8BaconBox3Key1TE
_ZN8BaconBox3Key1UE
_ZN8BaconBox3Key1VE
_ZN8BaconBox3Key1WE
_ZN8BaconBox3Key1XE
_ZN8BaconBox3Key1YE
_ZN8BaconBox3Key1ZE
_ZN8BaconBox3Key20LAUNCH_APPLICATION_1E
_ZN8BaconBox3Key20LAUNCH_APPLICATION_2E
_ZN8BaconBox3Key20MEDIA_PREVIOUS_TRACKE
_ZN8BaconBox3Key2ATE
_ZN8BaconBox3Key2D0E
_ZN8BaconBox3Key2D1E
_ZN8BaconBox3Key2D2E
_ZN8BaconBox3Key2D3E
_ZN8BaconBox3Key2D4E
_ZN8BaconBox3Key2D5E
_ZN8BaconBox3Key2D6E
_ZN8BaconBox3Key2D7E
_ZN8BaconBox3Key2D8E
_ZN8BaconBox3Key2D9E
_ZN8BaconBox3Key2F1E
_ZN8BaconBox3Key2F2E
_ZN8BaconBox3Key2F3E
_ZN8BaconBox3Key2F4E
_ZN8BaconBox3Key2F5E
_ZN8BaconBox3Key2F6E
_ZN8BaconBox3Key2F7E
_ZN8BaconBox3Key2F8E
_ZN8BaconBox3Key2F9E
_ZN8BaconBox3Key2UPE
_ZN8BaconBox3Key3ADDE
_ZN8BaconBox3Key3BARE
_ZN8BaconBox3Key3CUTE
_ZN8BaconBox3Key3ENDE
_ZN8BaconBox3Key3F10E
_ZN8BaconBox3Key3F11E
_ZN8BaconBox3Key3F12E
_ZN8BaconBox3Key3F13E
_ZN8BaconBox3Key3F14E
_ZN8BaconBox3Key3F15E
_ZN8BaconBox3Key3F16E
_ZN8BaconBox3Key3F17E
_ZN8BaconBox3Key3F18E
_ZN8BaconBox3Key3F19E
_ZN8BaconBox3Key3F20E
_ZN8BaconBox3Key3F21E
_ZN8BaconBox3Key3F22E
_ZN8BaconBox3Key3F23E
_ZN8BaconBox3Key3F24E
_ZN8BaconBox3Key3TABE
_ZN8BaconBox3Key4APPSE
_ZN8BaconBox3Key4ATTNE
_ZN8BaconBox3Key4AUTOE
_ZN8BaconBox3Key4COPYE
_ZN8BaconBox3Key4DOWNE
_ZN8BaconBox3Key4FINDE
_ZN8BaconBox3Key4HELPE
_ZN8BaconBox3Key4HOMEE
_ZN8BaconBox3Key4KANAE
_ZN8BaconBox3Key4LEFTE
_ZN8BaconBox3Key4LESSE
_ZN8BaconBox3Key4NBSPE
_ZN8BaconBox3Key4NONEE
_ZN8BaconBox3Key4PA_1E
_ZN8BaconBox3Key4PIPEE
_ZN8BaconBox3Key4PLAYE
_ZN8BaconBox3Key4PLUSE
_ZN8BaconBox3Key4REDOE
_ZN8BaconBox3Key4UNDOE
_ZN8BaconBox3Key4ZOOME
_ZN8BaconBox3Key5CLEARE
_ZN8BaconBox3Key5COLONE
_ZN8BaconBox3Key5COMMAE
_ZN8BaconBox3Key5CRSELE
_ZN8BaconBox3Key5EJECTE
_ZN8BaconBox3Key5ENL_WE
_ZN8BaconBox3Key5ENTERE
_ZN8BaconBox3Key5EQUALE
_ZN8BaconBox3Key5EXSELE
_ZN8BaconBox3Key5GRAVEE
_ZN8BaconBox3Key5KANJIE
_ZN8BaconBox3Key5MINUSE
_ZN8BaconBox3Key5PASTEE
_ZN8BaconBox3Key5PAUSEE
_ZN8BaconBox3Key5POWERE
_ZN8BaconBox3Key5PRINTE
_ZN8BaconBox3Key5RIGHTE
_ZN8BaconBox3Key5SLASHE
_ZN8BaconBox3Key5SLEEPE
_ZN8BaconBox3Key5SPACEE
_ZN8BaconBox3Key5TILDEE
_ZN8BaconBox3Key6CANCELE
_ZN8BaconBox3Key6DIVIDEE
_ZN8BaconBox3Key6DOLLARE
_ZN8BaconBox3Key6ESCAPEE
_ZN8BaconBox3Key6EXCLAME
_ZN8BaconBox3Key6INSERTE
_ZN8BaconBox3Key6PERIODE
_ZN8BaconBox3Key6QUOTESE
_ZN8BaconBox3Key6SCROLLE
_ZN8BaconBox3Key6SELECTE
_ZN8BaconBox3Key6SYSREQE
_ZN8BaconBox3Key6toCharEi
_ZN8BaconBox3Key7DECIMALE
_ZN8BaconBox3Key7EXECUTEE
_ZN8BaconBox3Key7GREATERE
_ZN8BaconBox3Key7INVALIDE
_ZN8BaconBox3Key7NB_KEYSE
_ZN8BaconBox3Key7PAGE_UPE
_ZN8BaconBox3Key7PERCENTE
_ZN8BaconBox3Key8ASTERISKE
_ZN8BaconBox3Key8LEFT_ALTE
_ZN8BaconBox3Key8MULTIPLYE
_ZN8BaconBox3Key8NUM_LOCKE
_ZN8BaconBox3Key8QUESTIONE
_ZN8BaconBox3Key8SUBTRACTE
_ZN8BaconBox3Key9AMPERSANDE
_ZN8BaconBox3Key9BACKSLASHE
_ZN8BaconBox3Key9BACKSPACEE
_ZN8BaconBox3Key9CAPS_LOCKE
_ZN8BaconBox3Key9DELETEKEYE
_ZN8BaconBox3Key9ERASE_EOFE
_ZN8BaconBox3Key9NUM_PAD_0E
_ZN8BaconBox3Key9NUM_PAD_1E
_ZN8BaconBox3Key9NUM_PAD_2E
_ZN8BaconBox3Key9NUM_PAD_3E
_ZN8BaconBox3Key9NUM_PAD_4E
_ZN8BaconBox3Key9NUM_PAD_5E
_ZN8BaconBox3Key9NUM_PAD_6E
_ZN8BaconBox3Key9NUM_PAD_7E
_ZN8BaconBox3Key9NUM_PAD_8E
_ZN8BaconBox3Key9NUM_PAD_9E
_ZN8BaconBox3Key9PAGE_DOWNE
_ZN8BaconBox3Key9RIGHT_ALTE
_ZN8BaconBox3Key9SEMICOLONE
_ZN8BaconBox3Key9SEPARATORE
_ZN8BaconBox3Key9VOLUME_UPE
_ZN8BaconBox4Font12getPixelSizeEv
_ZN8BaconBox4Font7setNameERKSs
_ZN8BaconBox4Font9getFormatEv
_ZN8BaconBox4FontC1ERKSs
_ZN8BaconBox4FontC1Ev
_ZN8BaconBox5Color11deserializeERKNS_5ValueE
_ZN8BaconBox5Color12isValidValueERKNS_5ValueE
_ZN8BaconBox5Color13getComponentsEv
_ZN8BaconBox5Color13setSaturationEf
_ZN8BaconBox5Color19MAX_COMPONENT_VALUEE
_ZN8BaconBox5Color22MAX_COMPONENT_VALUE_32E
_ZN8BaconBox5Color3REDE
_ZN8BaconBox5Color4AQUAE
_ZN8BaconBox5Color4BLUEE
_ZN8BaconBox5Color4GRAYE
_ZN8BaconBox5Color4LIMEE
_ZN8BaconBox5Color4NAVYE
_ZN8BaconBox5Color4TEALE
_ZN8BaconBox5Color5BLACKE
_ZN8BaconBox5Color5GREENE
_ZN8BaconBox5Color5OLIVEE
_ZN8BaconBox5Color5WHITEE
_ZN8BaconBox5Color6MAROONE
_ZN8BaconBox5Color6PURPLEE
_ZN8BaconBox5Color6SILVERE
_ZN8BaconBox5Color6YELLOWE
_ZN8BaconBox5Color6setHSVENS0_3HSVE
_ZN8BaconBox5Color6setHueEf
_ZN8BaconBox5Color6setRGBEfff
_ZN8BaconBox5Color6setRGBEiii
_ZN8BaconBox5Color6setRGBEj
_ZN8BaconBox5Color6setRedEf
_ZN8BaconBox5Color6setRedEi
_ZN8BaconBox5Color7FUCHSIAE
_ZN8BaconBox5Color7setBlueEf
_ZN8BaconBox5Color7setBlueEi
_ZN8BaconBox5Color7setRGBAERKSs
_ZN8BaconBox5Color7setRGBAEffff
_ZN8BaconBox5Color7setRGBAEiiii
_ZN8BaconBox5Color7setRGBAEj
_ZN8BaconBox5Color8NO_COLORE
_ZN8BaconBox5Color8setAlphaEf
_ZN8BaconBox5Color8setAlphaEi
_ZN8BaconBox5Color8setGreenEf
_ZN8BaconBox5Color8setGreenEi
_ZN8BaconBox5Color8setValueEf
_ZN8BaconBox5Color9normalizeEi
_ZN8BaconBox5ColorC1ERKS0_
_ZN8BaconBox5ColorC1ERKSs
_ZN8BaconBox5ColorC1Effff
_ZN8BaconBox5ColorC1Eiiii
_ZN8BaconBox5ColorC1Ej
_ZN8BaconBox5ColorC1Ev
_ZN8BaconBox5ColoraSERKS0_
_ZN8BaconBox5ColoreqERKS0_
_ZN8BaconBox5State12DEFAULT_NAMEE
_ZN8BaconBox5State17MESSAGE_GET_FOCUSE
_ZN8BaconBox5State18MESSAGE_LOST_FOCUSE
_ZN8BaconBox5State20MESSAGE_ADDED_ENTITYE
_ZN8BaconBox5State22MESSAGE_REMOVED_ENTITYE
_ZN8BaconBox5State2IDE
_ZN8BaconBox5State3addEP9lua_State
_ZN8BaconBox5State3addEPNS_6EntityE
_ZN8BaconBox5State6removeEPNS_6EntityE
_ZN8BaconBox5State9getCameraEv
_ZN8BaconBox5StateC1ERKSs
_ZN8BaconBox6CameraC1Ev
_ZN8BaconBox6Engine11applicationEiPPcRKSs
_ZN8BaconBox6Engine11getInstanceEv
_ZN8BaconBox6Engine11removeStateERKSs
_ZN8BaconBox6Engine12onInitializeE
_ZN8BaconBox6Engine13getMainWindowEv
_ZN8BaconBox6Engine14getMusicEngineEv
_ZN8BaconBox6Engine14getSoundEngineEv
_ZN8BaconBox6Engine14getUpdateDelayEv
_ZN8BaconBox6Engine14showMainWindowEv
_ZN8BaconBox6Engine15exitApplicationEi
_ZN8BaconBox6Engine15getCurrentStateEv
_ZN8BaconBox6Engine15isBufferSwappedEv
_ZN8BaconBox6Engine15removeAllStatesEv
_ZN8BaconBox6Engine16getGraphicDriverEv
_ZN8BaconBox6Engine16initializeEngineEjjff
_ZN8BaconBox6Engine16setBufferSwappedEv
_ZN8BaconBox6Engine18getApplicationArgcEv
_ZN8BaconBox6Engine18getApplicationArgvEv
_ZN8BaconBox6Engine18getApplicationNameEv
_ZN8BaconBox6Engine18getApplicationPathEv
_ZN8BaconBox6Engine18getSinceLastRenderEv
_ZN8BaconBox6Engine18getSinceLastUpdateEv
_ZN8BaconBox6Engine19getUpdatesPerSecondEv
_ZN8BaconBox6Engine19setUpdatesPerSecondEd
_ZN8BaconBox6Engine24DEFAULT_APPLICATION_NAMEE
_ZN8BaconBox6Engine26DEFAULT_UPDATES_PER_SECONDE
_ZN8BaconBox6Engine5pulseEv
_ZN8BaconBox6Engine8addStateEP9lua_State
_ZN8BaconBox6Engine8addStateEPNS_5StateE
_ZN8BaconBox6Engine8getStateERKSs
_ZN8BaconBox6Engine9getMinFpsEv
_ZN8BaconBox6Engine9playStateERKSs
_ZN8BaconBox6Engine9setMinFpsEj
_ZN8BaconBox6Entity11sendMessageEiiiPv
_ZN8BaconBox6Entity12addComponentEPNS_9ComponentE
_ZN8BaconBox6Entity15removeComponentEPNS_9ComponentE
_ZN8BaconBox6Entity16removeComponentsEi
_ZN8BaconBox6Entity19printComponentsNameEv
_ZN8BaconBox6Entity21MESSAGE_ADD_COMPONENTE
_ZN8BaconBox6Entity24MESSAGE_REMOVE_COMPONENTE
_ZN8BaconBox6Entity2IDE
_ZN8BaconBox6Entity5clearEv
_ZN8BaconBox6Entity6updateEv
_ZN8BaconBox6Entity9BROADCASTE
_ZN8BaconBox6EntityC1ERKS0_
_ZN8BaconBox6EntityC1Ev
_ZN8BaconBox6Matrix11deserializeERKNS_5ValueE
_ZN8BaconBox6Matrix12isValidValueERKNS_5ValueE
_ZN8BaconBox6Matrix5scaleERKNS_6VectorIfLj2EEE
_ZN8BaconBox6Matrix6concatERKS0_
_ZN8BaconBox6Matrix6rotateEf
_ZN8BaconBox6Matrix9translateERKNS_6VectorIfLj2EEE
_ZN8BaconBox6MatrixC1ERKS0_
_ZN8BaconBox6MatrixC1Effffff
_ZN8BaconBox6MatrixC1Ev
_ZN8BaconBox6MatrixaSERKS0_
_ZN8BaconBox6SymbolC1Ev
_ZN8BaconBox6VectorIfLj2EE2UPE
_ZN8BaconBox6VectorIfLj2EE4ZEROE
_ZN8BaconBox7HasName2IDE
_ZN8BaconBox7HasNameC1ERKSs
_ZN8BaconBox7Pointer10getDefaultEv
_ZN8BaconBox8Keyboard10addMaskKeyERKSsi
_ZN8BaconBox8Keyboard10getDefaultEv
_ZN8BaconBox8Keyboard10removeMaskERKSs
_ZN8BaconBox8Keyboard13removeMaskKeyERKSsi
_ZN8BaconBox8Platform11getInstanceEv
_ZN8BaconBox8Timeline25MESSAGE_NB_FRAMES_CHANGEDE
_ZN8BaconBox8Timeline2IDE
_ZN8BaconBox9Clickable2IDE
_ZN8BaconBox9ClickableC1Ev
_ZN8BaconBox9Component11sendMessageEiiPv
_ZN8BaconBox9Component2IDE
_ZN8BaconBox9ComponentC1ERKS0_
_ZN8BaconBox9ComponentC1Ev
_ZN8BaconBox9IDManager10generateIDERKSs
_ZN8BaconBox9IDManager10generateIDEv
_ZN8BaconBox9IDManager5getIDERKSs
_ZN8BaconBox9IDManager7getNameEi
_ZN8BaconBox9LuaEntity10addHitMaskEPNS_15MovieClipEntityE
_ZN8BaconBox9LuaEntity11setLuaClassEP9lua_State
_ZN8BaconBox9LuaEntity14reloadLuaClassEv
_ZN8BaconBox9LuaEntity2IDE
_ZN8BaconBox9LuaEntityC1Ev
_ZN8BaconBox9LuaHelper14connectSignal0EP9lua_StatePNS_11LuaCallbackE
_ZN8BaconBox9LuaHelper14connectSignal1EP9lua_StatePNS_11LuaCallbackE
_ZN8BaconBox9LuaHelper25getPointerFromLuaUserDataEP9lua_Stateb
_ZN8BaconBox9Transform11setPositionERKNS_6VectorIfLj2EEEb
_ZN8BaconBox9Transform11setRotationEfb
_ZN8BaconBox9Transform17MESSAGE_GET_SCALEE
_ZN8BaconBox9Transform17MESSAGE_SET_SCALEE
_ZN8BaconBox9Transform20MESSAGE_GET_POSITIONE
_ZN8BaconBox9Transform20MESSAGE_GET_ROTATIONE
_ZN8BaconBox9Transform20MESSAGE_SET_POSITIONE
_ZN8BaconBox9Transform20MESSAGE_SET_ROTATIONE
_ZN8BaconBox9Transform21MESSAGE_SCALE_CHANGEDE
_ZN8BaconBox9Transform24MESSAGE_POSITION_CHANGEDE
_ZN8BaconBox9Transform24MESSAGE_ROTATION_CHANGEDE
_ZN8BaconBox9Transform2IDE
_ZN8BaconBox9Transform8setScaleERKNS_6VectorIfLj2EEEb
_ZN8BaconBox9TransformC1ERKS0_
_ZN8BaconBox9TransformC1Ev
_ZN8BaconBox9UIManager12addClickableEP9lua_State
_ZN8BaconBox9UIManager12addClickableEPNS_15MovieClipEntityE
_ZN8BaconBox9UIManager2IDE
_ZN8BaconBox9UIManagerC1Ev
_ZNK8BaconBox10MainWindow14getOrientationEv
_ZNK8BaconBox11ColorMatrix21getPreMultipliedColorERKNS_5ColorE
_ZNK8BaconBox11ColorMatrix9serializeERNS_5ValueEb
_ZNK8BaconBox11ColorMatrixmlERKS0_
_ZNK8BaconBox11CursorState11getPositionEv
_ZNK8BaconBox11CursorState12isButtonHeldEi
_ZNK8BaconBox11CursorState15isButtonPressedEi
_ZNK8BaconBox11CursorState16isButtonReleasedEi
_ZNK8BaconBox11CursorState19getPreviousPositionEv
_ZNK8BaconBox11CursorState8hasMovedEv
_ZNK8BaconBox11MusicEngine14getMusicVolumeEv
_ZNK8BaconBox11MusicEngine7isMutedEv
_ZNK8BaconBox11SoundEngine14getSoundVolumeEv
_ZNK8BaconBox11SoundEngine7isMutedEv
_ZNK8BaconBox12HasNameProxy7getNameEv
_ZNK8BaconBox12PointerState14getCursorStateEj
_ZNK8BaconBox13KeyboardState10maskHasKeyERKSsi
_ZNK8BaconBox13KeyboardState12isKeyPressedEi
_ZNK8BaconBox13KeyboardState13isKeyMaskHeldERKSs
_ZNK8BaconBox13KeyboardState13isKeyReleasedEi
_ZNK8BaconBox13KeyboardState16isKeyMaskPressedERKSs
_ZNK8BaconBox13KeyboardState17isKeyMaskReleasedERKSs
_ZNK8BaconBox13KeyboardState9isKeyHeldEi
_ZNK8BaconBox13TimelineProxy11getNbFramesEv
_ZNK8BaconBox13TimelineProxy15getCurrentFrameEv
_ZNK8BaconBox13TimelineProxy9isPlayingEv
_ZNK8BaconBox14TransformProxy11getPositionEv
_ZNK8BaconBox14TransformProxy11getRotationEv
_ZNK8BaconBox14TransformProxy15getRealPositionEv
_ZNK8BaconBox14TransformProxy8getScaleEv
_ZNK8BaconBox17PointerSignalData11getPositionEv
_ZNK8BaconBox17PointerSignalData12getXPositionEv
_ZNK8BaconBox17PointerSignalData12getYPositionEv
_ZNK8BaconBox17PointerSignalData19getPreviousPositionEv
_ZNK8BaconBox17PointerSignalData20getPreviousXPositionEv
_ZNK8BaconBox17PointerSignalData20getPreviousYPositionEv
_ZNK8BaconBox20EntityContainerProxy10getChildAtEi
_ZNK8BaconBox20EntityContainerProxy13getChildIndexEPNS_15MovieClipEntityE
_ZNK8BaconBox20EntityContainerProxy13getNbChildrenEv
_ZNK8BaconBox20EntityContainerProxy14getChildByNameERKSs
_ZNK8BaconBox20EntityContainerProxy20getObjectsUnderPointERKNS_6VectorIfLj2EEE
_ZNK8BaconBox20EntityContainerProxy8containsEPNS_15MovieClipEntityE
_ZNK8BaconBox20EntityContainerProxy9getParentEv
_ZNK8BaconBox22AxisAlignedBoundingBox11getPositionEv
_ZNK8BaconBox22AxisAlignedBoundingBox12getXPositionEv
_ZNK8BaconBox22AxisAlignedBoundingBox12getYPositionEv
_ZNK8BaconBox22AxisAlignedBoundingBox17getPositionCenterEv
_ZNK8BaconBox22AxisAlignedBoundingBox18getXPositionCenterEv
_ZNK8BaconBox22AxisAlignedBoundingBox18getYPositionCenterEv
_ZNK8BaconBox22AxisAlignedBoundingBox18isCompletelyInsideERKS0_
_ZNK8BaconBox22AxisAlignedBoundingBox20overlapsVerticalLineEf
_ZNK8BaconBox22AxisAlignedBoundingBox20overlapsVerticalLineEfff
_ZNK8BaconBox22AxisAlignedBoundingBox22overlapsHorizontalLineEf
_ZNK8BaconBox22AxisAlignedBoundingBox22overlapsHorizontalLineEfff
_ZNK8BaconBox22AxisAlignedBoundingBox6getTopEv
_ZNK8BaconBox22AxisAlignedBoundingBox7getLeftEv
_ZNK8BaconBox22AxisAlignedBoundingBox7getSizeEv
_ZNK8BaconBox22AxisAlignedBoundingBox8getRightEv
_ZNK8BaconBox22AxisAlignedBoundingBox8getWidthEv
_ZNK8BaconBox22AxisAlignedBoundingBox8overlapsERKNS_6VectorIfLj2EEE
_ZNK8BaconBox22AxisAlignedBoundingBox8overlapsERKS0_
_ZNK8BaconBox22AxisAlignedBoundingBox8overlapsEff
_ZNK8BaconBox22AxisAlignedBoundingBox9getBottomEv
_ZNK8BaconBox22AxisAlignedBoundingBox9getHeightEv
_ZNK8BaconBox22AxisAlignedBoundingBoxeqERKS0_
_ZNK8BaconBox4Font7getNameEv
_ZNK8BaconBox5Color10getRedUINTEv
_ZNK8BaconBox5Color11getBlueUINTEv
_ZNK8BaconBox5Color12getAlphaUINTEv
_ZNK8BaconBox5Color12getGreenUINTEv
_ZNK8BaconBox5Color13getComponentsEv
_ZNK8BaconBox5Color13getSaturationEv
_ZNK8BaconBox5Color6getHSVEv
_ZNK8BaconBox5Color6getHueEv
_ZNK8BaconBox5Color6getRGBEv
_ZNK8BaconBox5Color6getRedEv
_ZNK8BaconBox5Color7getBlueEv
_ZNK8BaconBox5Color7getRGBAEv
_ZNK8BaconBox5Color8getAlphaEv
_ZNK8BaconBox5Color8getGreenEv
_ZNK8BaconBox5Color8getValueEv
_ZNK8BaconBox5Color9serializeERNS_5ValueEb
_ZNK8BaconBox5ColormlERKS0_
_ZNK8BaconBox5ColorplERKS0_
_ZNK8BaconBox5Sound9getVolumeEv
_ZNK8BaconBox5State9getCameraEv
_ZNK8BaconBox6Entity12getComponentERKSs
_ZNK8BaconBox6Entity12getComponentEib
_ZNK8BaconBox6Entity13getComponentsEv
_ZNK8BaconBox6Entity13getEntityNameEv
_ZNK8BaconBox6Matrix18multiplyWithVectorERKNS_6VectorIfLj2EEE
_ZNK8BaconBox6Matrix9serializeERNS_5ValueEb
_ZNK8BaconBox6MatrixmlERKS0_
_ZNK8BaconBox7Pointer11getPositionEj
_ZNK8BaconBox7Pointer12isButtonHeldEij
_ZNK8BaconBox7Pointer15isButtonPressedEij
_ZNK8BaconBox7Pointer16isButtonReleasedEij
_ZNK8BaconBox7Pointer19getPreviousPositionEj
_ZNK8BaconBox7Pointer8getStateEv
_ZNK8BaconBox7Pointer8hasMovedEj
_ZNK8BaconBox8Keyboard10maskHasKeyERKSsi
_ZNK8BaconBox8Keyboard12isKeyPressedEi
_ZNK8BaconBox8Keyboard13isKeyMaskHeldERKSs
_ZNK8BaconBox8Keyboard13isKeyReleasedEi
_ZNK8BaconBox8Keyboard16isKeyMaskPressedERKSs
_ZNK8BaconBox8Keyboard17isKeyMaskReleasedERKSs
_ZNK8BaconBox8Keyboard8getStateEv
_ZNK8BaconBox8Keyboard9isKeyHeldEi
_ZNK8BaconBox9Component16getComponentNameEv
_ZNK8BaconBox9Component9getEntityEv
_ZNK8BaconBox9Transform11getRotationEv
_ZNK8BaconBox9Transform8getScaleEv
_ZNKSs4dataEv
_ZNKSs4sizeEv
_ZNKSs5c_strEv
_ZNKSs5emptyEv
_ZNKSs6lengthEv
_ZNSaIcEC1Ev
_ZNSaIcED1Ev
_ZNSolsEPFRSoS_E
_ZNSs6assignEPKc
_ZNSs6assignEPKcj
_ZNSsC1EPKcRKSaIcE
_ZNSsC1ERKSs
_ZNSsC1Ev
_ZNSsD1Ev
_ZNSsaSERKSs
_ZNSt15_List_node_base4hookEPS_
_ZNSt15_List_node_base6unhookEv
_ZNSt15_List_node_base8transferEPS_S0_
_ZNSt8ios_base4InitC1Ev
_ZNSt8ios_base4InitD1Ev
_ZSt17__throw_bad_allocv
_ZSt18_Rb_tree_decrementPSt18_Rb_tree_node_base
_ZSt18_Rb_tree_incrementPKSt18_Rb_tree_node_base
_ZSt18_Rb_tree_incrementPSt18_Rb_tree_node_base
_ZSt28_Rb_tree_rebalance_for_erasePSt18_Rb_tree_node_baseRS_
_ZSt29_Rb_tree_insert_and_rebalancebPSt18_Rb_tree_node_baseS0_RS_
_ZSt4cerr
_ZSt4cout
_ZSt4endlIcSt11char_traitsIcEERSt13basic_ostreamIT_T0_ES6_
_ZSt9terminatev
_ZStlsISt11char_traitsIcEERSt13basic_ostreamIcT_ES5_PKc
_ZTIN8BaconBox17PointerSignalDataE
_ZTVN10__cxxabiv117__class_type_infoE
_ZTVN10__cxxabiv120__si_class_type_infoE
_ZTVN8BaconBox13KeySignalDataE
_ZTVN8BaconBox17KeyMaskSignalDataE
_ZTVN8BaconBox17PointerSignalDataE
_ZTVN8BaconBox18KeyboardSignalDataE
_ZTVN8BaconBox4FontE
_ZdlPv
_Znwj
__assert
__cxa_begin_catch
__cxa_end_catch
__cxa_pure_virtual
__cxa_rethrow
__gxx_personality_sj0
__stderrp
acosf
cosf
fprintf
luaL_checklstring
luaL_loadstring
lua_callk
lua_createtable
lua_error
lua_getfield
lua_getmetatable
lua_gettop
lua_iscfunction
lua_isnumber
lua_isstring
lua_isuserdata
lua_newuserdata
lua_pcallk
lua_pushboolean
lua_pushcclosure
lua_pushfstring
lua_pushlightuserdata
lua_pushlstring
lua_pushnil
lua_pushnumber
lua_pushstring
lua_pushvalue
lua_rawget
lua_rawgeti
lua_rawlen
lua_rawset
lua_remove
lua_setmetatable
lua_settop
lua_toboolean
lua_tolstring
lua_tonumberx
lua_touserdata
lua_type
lua_typename
sinf
sprintf
sqrtf
strcmp
strlen
_Z16_wrap_new_Enginev
_Z18_wrap_Engine_pulsev
_Z19_wrap_delete_Enginev
_Z19_wrap_new_FlashFontv
_Z20_wrap_new_LuaManagerv
_Z20_wrap_new_TextEntityv
_Z22_wrap_delete_FlashFontv
_Z23_wrap_LuaManager_doFilev
_Z23_wrap_delete_LuaManagerv
_Z23_wrap_delete_TextEntityv
_Z24_wrap_Engine_applicationv
_Z25_wrap_LuaManager_doStringv
_Z25_wrap_new_MovieClipEntityv
_Z28_wrap_delete_MovieClipEntityv
_Z29_wrap_Engine_initializeEnginev
_Z29_wrap_LuaManager_addToLuaPathv
_Z29_wrap_TextEntity_setMovieClipv
_Z34_wrap_MovieClipEntity_setMovieClipv


_ZTIN8BaconBox9FlashFontE
_ZTSN8BaconBox9FlashFontE
_ZTVN8BaconBox9FlashFontE



_Unwind_SjLj_Resume
_ZN3AS35local3varC1ERKS1_
_ZN3AS35local3varD1Ev
_ZN3AS35local3varaSES1_
_ZN8BaconBox10LuaManager12addToLuaPathERKSs
_ZN8BaconBox10LuaManager6doFileERKSs
_ZN8BaconBox10LuaManager8doStringERKSs
_ZN8BaconBox10LuaManagerC1Ev
_ZN8BaconBox10TextEntityC1EPNS_4FontE
_ZN8BaconBox15MovieClipEntityC1Ev
_ZN8BaconBox4Font12setPixelSizeEi
_ZN8BaconBox4Font13getTextEntityEv
_ZN8BaconBox6Engine11applicationEiPPcRKSs
_ZN8BaconBox6Engine16initializeEngineEjjff
_ZN8BaconBox6Engine24DEFAULT_APPLICATION_NAMEE
_ZN8BaconBox6Engine5pulseEv
_ZN8BaconBox9FlashFontC1ERKSs
_ZNSs6assignEPKc
_ZNSsC1Ev
_ZNSsD1Ev
_ZNSt8ios_base4InitC1Ev
_ZNSt8ios_base4InitD1Ev
_ZSt9terminatev
_ZTIN8BaconBox4FontE
_ZTVN10__cxxabiv120__si_class_type_infoE
_ZTVN8BaconBox4FontE
_ZdlPv
_Znwj
__gxx_personality_sj0
free


luaC_barrier_
luaC_barrierback_
luaC_changemode
luaC_checkfinalizer
luaC_forcestep
luaC_fullgc
luaC_step
luaD_call
luaD_growstack
luaD_pcall
luaD_protectedparser
luaD_rawrunprotected
luaE_setdebt
luaF_newCclosure
luaG_errormsg
luaH_get
luaH_getint
luaH_getn
luaH_new
luaH_next
luaH_resize
luaH_set
luaH_setint
luaO_arith
luaO_nilobject_
luaO_pushvfstring
luaS_new
luaS_newlstr
luaS_newudata
luaT_typenames_
luaU_dump
luaV_arith
luaV_concat
luaV_equalobj_
luaV_gettable
luaV_lessequal
luaV_lessthan
luaV_objlen
luaV_settable
luaV_tonumber
luaV_tostring
luaZ_init
luaC_barrier_
luaH_set
luaM_growaux_
luaO_arith
luaP_opmodes
luaS_newlstr
luaV_equalobj_
luaX_syntaxerror
luaD_call
luaD_throw
luaF_getlocalname
luaH_new
luaH_setint
luaO_chunkid
luaO_pushfstring
luaO_pushvfstring
luaP_opmodes
luaT_typenames_
luaV_tonumber
strchr
strcmp
abort
longjmp
luaC_barrier_
luaC_step
luaE_extendCI
luaF_close
luaF_newupval
luaG_runerror
luaG_typeerror
luaM_realloc_
luaM_toobig
luaO_pushfstring
luaS_new
luaS_newlstr
luaT_gettmbyobj
luaU_undump
luaV_execute
luaV_finishOp
luaY_parser
luaZ_fill
setjmp
strchr
luaU_header
luaC_checkupvalcolor
luaC_newobj
luaM_realloc_
luaD_call
luaD_pcall
luaD_shrinkstack
luaD_throw
luaE_freeCI
luaE_freethread
luaE_setdebt
luaF_freeproto
luaF_freeupval
luaH_free
luaM_realloc_
luaO_pushfstring
luaS_resize
luaT_gettm
luaT_gettmbyobj
strchr
localeconv
luaC_step
luaD_throw
luaH_set
luaM_realloc_
luaM_toobig
luaO_chunkid
luaO_hexavalue
luaO_pushfstring
luaO_str2d
luaS_new
luaS_newlstr
luaZ_fill
luai_ctype_
memchr
luaC_fullgc
luaD_throw
luaG_runerror
floor
ldexp
luaD_growstack
luaG_runerror
luaS_newlstr
luaV_concat
luai_ctype_
pow
sprintf
strchr
strlen
strpbrk
strtod
luaC_barrier_
luaC_step
luaD_growstack
luaF_newLclosure
luaF_newproto
luaH_new
luaK_checkstack
luaK_codeABC
luaK_codeABx
luaK_codek
luaK_concat
luaK_dischargevars
luaK_exp2RK
luaK_exp2anyreg
luaK_exp2anyregup
luaK_exp2nextreg
luaK_exp2val
luaK_fixline
luaK_getlabel
luaK_goiffalse
luaK_goiftrue
luaK_indexed
luaK_infix
luaK_jump
luaK_nil
luaK_numberK
luaK_patchclose
luaK_patchlist
luaK_patchtohere
luaK_posfix
luaK_prefix
luaK_reserveregs
luaK_ret
luaK_self
luaK_setlist
luaK_setoneret
luaK_setreturns
luaK_storevar
luaK_stringK
luaM_growaux_
luaM_realloc_
luaM_toobig
luaO_int2fb
luaO_pushfstring
luaS_eqstr
luaS_new
luaX_lookahead
luaX_newstring
luaX_next
luaX_setinput
luaX_syntaxerror
luaX_token2str
luaC_freeallobjects
luaC_newobj
luaC_step
luaD_rawrunprotected
luaF_close
luaH_new
luaH_resize
luaH_setint
luaM_realloc_
luaO_nilobject_
luaS_hash
luaS_newlstr
luaS_resize
luaT_init
luaX_init
lua_version
time
luaC_newobj
luaC_runtilstate
luaM_realloc_
luaM_toobig
memcmp
strlen
luaC_barrierback_
luaC_newobj
luaG_runerror
luaM_realloc_
luaM_toobig
luaO_ceillog2
luaO_nilobject_
luaS_hash
luaV_equalobj_
luaH_getstr
luaO_nilobject_
luaS_new
luaD_growstack
luaD_throw
luaF_newLclosure
luaF_newproto
luaM_realloc_
luaM_toobig
luaO_pushfstring
luaS_newlstr
luaZ_openspace
luaZ_read
memcmp
floor
luaC_barrier_
luaC_barrierback_
luaC_barrierproto_
luaC_step
luaD_call
luaD_growstack
luaD_hook
luaD_poscall
luaD_precall
luaD_throw
luaF_close
luaF_findupval
luaF_newLclosure
luaG_aritherror
luaG_concaterror
luaG_ordererror
luaG_runerror
luaG_typeerror
luaH_get
luaH_getn
luaH_new
luaH_newkey
luaH_resize
luaH_resizearray
luaH_setint
luaO_arith
luaO_fb2int
luaO_nilobject_
luaO_str2d
luaS_eqlngstr
luaS_newlstr
luaT_gettm
luaT_gettmbyobj
luaZ_openspace
pow
sprintf
strcoll
strlen
luaM_realloc_
luaM_toobig
__error
__isthreaded
__srget
__stderrp
__stdinp
fclose
feof
ferror
fflush
fopen
fprintf
fread
free
freopen
getc
lua_absindex
lua_atpanic
lua_callk
lua_checkstack
lua_concat
lua_copy
lua_createtable
lua_error
lua_getfield
lua_getinfo
lua_getmetatable
lua_getstack
lua_gettop
lua_insert
lua_len
lua_load
lua_newstate
lua_newuserdata
lua_next
lua_pushboolean
lua_pushcclosure
lua_pushfstring
lua_pushinteger
lua_pushlstring
lua_pushnil
lua_pushnumber
lua_pushstring
lua_pushvalue
lua_pushvfstring
lua_rawequal
lua_rawget
lua_rawgeti
lua_rawlen
lua_rawseti
lua_remove
lua_setfield
lua_setglobal
lua_setmetatable
lua_settable
lua_settop
lua_toboolean
lua_tointegerx
lua_tolstring
lua_tonumberx
lua_topointer
lua_tounsignedx
lua_touserdata
lua_type
lua_typename
lua_version
realloc
strchr
strcmp
strerror
strlen
strstr
_CurrentRuneLocale
_DefaultRuneLocale
__mb_sb_limit
__stdoutp
fflush
fputc
fwrite
luaL_argerror
luaL_checkany
luaL_checkinteger
luaL_checklstring
luaL_checkoption
luaL_checkstack
luaL_checktype
luaL_error
luaL_getmetafield
luaL_loadbufferx
luaL_loadfilex
luaL_optinteger
luaL_optlstring
luaL_setfuncs
luaL_tolstring
luaL_where
lua_callk
lua_checkstack
lua_concat
lua_copy
lua_error
lua_gc
lua_getctx
lua_getglobal
lua_getmetatable
lua_gettop
lua_insert
lua_isstring
lua_load
lua_next
lua_pcallk
lua_pushboolean
lua_pushcclosure
lua_pushinteger
lua_pushlstring
lua_pushnil
lua_pushnumber
lua_pushstring
lua_pushvalue
lua_rawequal
lua_rawget
lua_rawgeti
lua_rawlen
lua_rawset
lua_replace
lua_setfield
lua_setmetatable
lua_settop
lua_setupvalue
lua_toboolean
lua_tolstring
lua_tonumberx
lua_type
lua_typename
strspn
luaL_argerror
luaL_checkinteger
luaL_checkunsigned
luaL_error
luaL_optinteger
luaL_setfuncs
lua_createtable
lua_gettop
lua_pushboolean
lua_pushunsigned
luaL_argerror
luaL_checktype
luaL_setfuncs
luaL_where
lua_checkstack
lua_concat
lua_createtable
lua_error
lua_getstack
lua_gettop
lua_insert
lua_isstring
lua_newthread
lua_pushboolean
lua_pushcclosure
lua_pushlstring
lua_pushthread
lua_pushvalue
lua_resume
lua_settop
lua_status
lua_tothread
lua_xmove
lua_yieldk
__stderrp
__stdinp
fflush
fgets
fprintf
fwrite
luaL_argerror
luaL_checkany
luaL_checkinteger
luaL_checklstring
luaL_checktype
luaL_getsubtable
luaL_loadbufferx
luaL_optinteger
luaL_optlstring
luaL_setfuncs
luaL_traceback
lua_callk
lua_createtable
lua_gethook
lua_gethookcount
lua_gethookmask
lua_getinfo
lua_getlocal
lua_getmetatable
lua_getstack
lua_getupvalue
lua_getuservalue
lua_insert
lua_iscfunction
lua_isnumber
lua_pcallk
lua_pushboolean
lua_pushfstring
lua_pushinteger
lua_pushlightuserdata
lua_pushlstring
lua_pushnil
lua_pushstring
lua_pushthread
lua_pushvalue
lua_rawget
lua_rawset
lua_remove
lua_setfield
lua_sethook
lua_setlocal
lua_setmetatable
lua_settop
lua_setupvalue
lua_setuservalue
lua_tointegerx
lua_tolstring
lua_tothread
lua_type
lua_upvalueid
lua_upvaluejoin
lua_xmove
strchr
strcmp
strlen
__error
__isthreaded
__srget
__stderrp
__stdinp
__stdoutp
clearerr
fclose
ferror
fflush
fgets
fopen
fprintf
fread
fscanf
fseek
ftell
fwrite
getc
luaL_argerror
luaL_buffinit
luaL_checkany
luaL_checklstring
luaL_checkoption
luaL_checkstack
luaL_checkudata
luaL_error
luaL_execresult
luaL_fileresult
luaL_newmetatable
luaL_optinteger
luaL_optlstring
luaL_optnumber
luaL_prepbuffsize
luaL_pushresult
luaL_setfuncs
luaL_setmetatable
luaL_testudata
lua_createtable
lua_getfield
lua_gettop
lua_newuserdata
lua_pushboolean
lua_pushcclosure
lua_pushfstring
lua_pushinteger
lua_pushlstring
lua_pushnil
lua_pushnumber
lua_pushvalue
lua_rawlen
lua_replace
lua_setfield
lua_settop
lua_toboolean
lua_tointegerx
lua_tolstring
lua_tonumberx
lua_touserdata
lua_type
memchr
setvbuf
strerror
strlen
tmpfile
ungetc
acos
asin
atan
atan2
ceil
cos
cosh
exp
fabs
floor
fmod
frexp
ldexp
log
log10
luaL_argerror
luaL_checkinteger
luaL_checknumber
luaL_checkunsigned
luaL_error
luaL_setfuncs
lua_createtable
lua_gettop
lua_pushinteger
lua_pushnumber
lua_setfield
lua_type
modf
pow
rand
sin
sinh
sqrt
srand
tan
tanh
clock
difftime
exit
getenv
gmtime
localtime
luaL_addlstring
luaL_argerror
luaL_buffinit
luaL_checklstring
luaL_checknumber
luaL_checkoption
luaL_checktype
luaL_error
luaL_execresult
luaL_fileresult
luaL_optinteger
luaL_optlstring
luaL_optnumber
luaL_prepbuffsize
luaL_pushresult
luaL_setfuncs
lua_close
lua_createtable
lua_getfield
lua_pushboolean
lua_pushfstring
lua_pushinteger
lua_pushnil
lua_pushnumber
lua_pushstring
lua_setfield
lua_settop
lua_toboolean
lua_tointegerx
lua_type
mktime
remove
rename
setlocale
strchr
strcmp
strftime
system
time
tmpnam
_CurrentRuneLocale
_DefaultRuneLocale
__mb_sb_limit
luaL_addlstring
luaL_addstring
luaL_addvalue
luaL_argerror
luaL_buffinit
luaL_buffinitsize
luaL_checkinteger
luaL_checklstring
luaL_checknumber
luaL_checkstack
luaL_checktype
luaL_error
luaL_optinteger
luaL_optlstring
luaL_prepbuffsize
luaL_pushresult
luaL_pushresultsize
luaL_setfuncs
luaL_tolstring
lua_callk
lua_createtable
lua_dump
lua_gettable
lua_gettop
lua_isstring
lua_pushcclosure
lua_pushinteger
lua_pushlstring
lua_pushnil
lua_pushvalue
lua_replace
lua_setfield
lua_setmetatable
lua_settop
lua_toboolean
lua_tointegerx
lua_tolstring
lua_type
lua_typename
memchr
memcmp
sprintf
strchr
strlen
strpbrk
luaL_addlstring
luaL_addvalue
luaL_argerror
luaL_buffinit
luaL_checkinteger
luaL_checkstack
luaL_checktype
luaL_error
luaL_len
luaL_optinteger
luaL_optlstring
luaL_pushresult
luaL_setfuncs
lua_callk
lua_checkstack
lua_compare
lua_createtable
lua_getfield
lua_gettop
lua_isstring
lua_next
lua_pushinteger
lua_pushnil
lua_pushnumber
lua_pushvalue
lua_rawgeti
lua_rawseti
lua_replace
lua_setfield
lua_setglobal
lua_settop
lua_toboolean
lua_tonumberx
lua_type
lua_typename
fclose
fopen
getenv
luaL_addvalue
luaL_buffinit
luaL_checklstring
luaL_checktype
luaL_error
luaL_getsubtable
luaL_gsub
luaL_len
luaL_loadfilex
luaL_optlstring
luaL_pushmodule
luaL_pushresult
luaL_setfuncs
lua_callk
lua_createtable
lua_getfield
lua_getinfo
lua_getmetatable
lua_getstack
lua_gettop
lua_insert
lua_iscfunction
lua_isstring
lua_pushboolean
lua_pushcclosure
lua_pushfstring
lua_pushlstring
lua_pushnil
lua_pushstring
lua_pushvalue
lua_rawgeti
lua_rawseti
lua_remove
lua_setfield
lua_setmetatable
lua_settop
lua_setupvalue
lua_toboolean
lua_tolstring
lua_touserdata
lua_type
strchr
strlen
strrchr
luaL_getsubtable
luaL_requiref
lua_settop
luaopen_base
luaopen_bit32
luaopen_coroutine
luaopen_debug
luaopen_io
luaopen_math
luaopen_os
luaopen_package
luaopen_string
luaopen_table



abort
memcpy
memmove
memset
abort
memcpy
memmove
memset
abort
memcpy
memmove
memset
abort
memcpy
memmove
memset
abort
memcpy
memmove
memset
abort
memcpy
memmove
memset
abort
memcpy
memmove
memset
abort
memcpy
memmove
memset
abort
memcpy
memmove
memset
abort
memcpy
memmove
memset
abort
memcpy
memmove
memset
abort
memcpy
memmove
memset
abort
memcpy
memmove
memset
abort
memcpy
memmove
memset
abort
memcpy
memmove
memset
abort
memcpy
memmove
memset
abort
memcpy
memmove
memset
abort
memcpy
memmove
memset
abort
memcpy
memmove
memset
abort
memcpy
memmove
memset
abort
memcpy
memmove
memset
abort
memcpy
memmove
memset
abort
memcpy
memmove
memset
abort
memcpy
memmove
memset
abort
memcpy
memmove
memset
abort
memcpy
memmove
memset
abort
memcpy
memmove
memset
abort
memcpy
memmove
memset
abort
memcpy
memmove
memset
abort
memcpy
memmove
memset
abort
memcpy
memmove
memset
abort
memcpy
memmove
memset
_lua_absindex
_lua_arith
_lua_atpanic
_lua_callk
_lua_checkstack
_lua_compare
_lua_concat
_lua_copy
_lua_createtable
_lua_dump
_lua_error
_lua_gc
_lua_getallocf
_lua_getctx
_lua_getfield
_lua_getglobal
_lua_getmetatable
_lua_gettable
_lua_gettop
_lua_getupvalue
_lua_getuservalue
_lua_ident
_lua_insert
_lua_iscfunction
_lua_isnumber
_lua_isstring
_lua_isuserdata
_lua_len
_lua_load
_lua_newuserdata
_lua_next
_lua_pcallk
_lua_pushboolean
_lua_pushcclosure
_lua_pushfstring
_lua_pushinteger
_lua_pushlightuserdata
_lua_pushlstring
_lua_pushnil
_lua_pushnumber
_lua_pushstring
_lua_pushthread
_lua_pushunsigned
_lua_pushvalue
_lua_pushvfstring
_lua_rawequal
_lua_rawget
_lua_rawgeti
_lua_rawgetp
_lua_rawlen
_lua_rawset
_lua_rawseti
_lua_rawsetp
_lua_remove
_lua_replace
_lua_setallocf
_lua_setfield
_lua_setglobal
_lua_setmetatable
_lua_settable
_lua_settop
_lua_setupvalue
_lua_setuservalue
_lua_status
_lua_toboolean
_lua_tocfunction
_lua_tointegerx
_lua_tolstring
_lua_tonumberx
_lua_topointer
_lua_tothread
_lua_tounsignedx
_lua_touserdata
_lua_type
_lua_typename
_lua_upvalueid
_lua_upvaluejoin
_lua_version
_lua_xmove
_luaK_checkstack
_luaK_codeABC
_luaK_codeABx
_luaK_codek
_luaK_concat
_luaK_dischargevars
_luaK_exp2RK
_luaK_exp2anyreg
_luaK_exp2anyregup
_luaK_exp2nextreg
_luaK_exp2val
_luaK_fixline
_luaK_getlabel
_luaK_goiffalse
_luaK_goiftrue
_luaK_indexed
_luaK_infix
_luaK_jump
_luaK_nil
_luaK_numberK
_luaK_patchclose
_luaK_patchlist
_luaK_patchtohere
_luaK_posfix
_luaK_prefix
_luaK_reserveregs
_luaK_ret
_luaK_self
_luaK_setlist
_luaK_setoneret
_luaK_setreturns
_luaK_storevar
_luaK_stringK
_luai_ctype_
_luaG_aritherror
_luaG_concaterror
_luaG_errormsg
_luaG_ordererror
_luaG_runerror
_luaG_typeerror
_lua_gethook
_lua_gethookcount
_lua_gethookmask
_lua_getinfo
_lua_getlocal
_lua_getstack
_lua_sethook
_lua_setlocal
_luaD_call
_luaD_growstack
_luaD_hook
_luaD_pcall
_luaD_poscall
_luaD_precall
_luaD_protectedparser
_luaD_rawrunprotected
_luaD_reallocstack
_luaD_shrinkstack
_luaD_throw
_lua_resume
_lua_yieldk
_luaU_dump
_luaF_close
_luaF_findupval
_luaF_freeproto
_luaF_freeupval
_luaF_getlocalname
_luaF_newCclosure
_luaF_newLclosure
_luaF_newproto
_luaF_newupval
_luaC_barrier_
_luaC_barrierback_
_luaC_barrierproto_
_luaC_changemode
_luaC_checkfinalizer
_luaC_checkupvalcolor
_luaC_forcestep
_luaC_freeallobjects
_luaC_fullgc
_luaC_newobj
_luaC_runtilstate
_luaC_step
_luaX_init
_luaX_lookahead
_luaX_newstring
_luaX_next
_luaX_setinput
_luaX_syntaxerror
_luaX_token2str
_luaM_growaux_
_luaM_realloc_
_luaM_toobig
_luaO_arith
_luaO_ceillog2
_luaO_chunkid
_luaO_fb2int
_luaO_hexavalue
_luaO_int2fb
_luaO_nilobject_
_luaO_pushfstring
_luaO_pushvfstring
_luaO_str2d
_luaP_opmodes
_luaP_opnames
_luaY_parser
_luaE_extendCI
_luaE_freeCI
_luaE_freethread
_luaE_setdebt
_lua_close
_lua_newstate
_lua_newthread
_luaS_eqlngstr
_luaS_eqstr
_luaS_hash
_luaS_new
_luaS_newlstr
_luaS_newudata
_luaS_resize
_luaH_free
_luaH_get
_luaH_getint
_luaH_getn
_luaH_getstr
_luaH_new
_luaH_newkey
_luaH_next
_luaH_resize
_luaH_resizearray
_luaH_set
_luaH_setint
_luaT_gettm
_luaT_gettmbyobj
_luaT_init
_luaT_typenames_
_luaU_header
_luaU_undump
_luaV_arith
_luaV_concat
_luaV_equalobj_
_luaV_execute
_luaV_finishOp
_luaV_gettable
_luaV_lessequal
_luaV_lessthan
_luaV_objlen
_luaV_settable
_luaV_tonumber
_luaV_tostring
_luaZ_fill
_luaZ_init
_luaZ_openspace
_luaZ_read
_luaL_addlstring
_luaL_addstring
_luaL_addvalue
_luaL_argerror
_luaL_buffinit
_luaL_buffinitsize
_luaL_callmeta
_luaL_checkany
_luaL_checkinteger
_luaL_checklstring
_luaL_checknumber
_luaL_checkoption
_luaL_checkstack
_luaL_checktype
_luaL_checkudata
_luaL_checkunsigned
_luaL_checkversion_
_luaL_error
_luaL_execresult
_luaL_fileresult
_luaL_getmetafield
_luaL_getsubtable
_luaL_gsub
_luaL_len
_luaL_loadbufferx
_luaL_loadfilex
_luaL_loadstring
_luaL_newmetatable
_luaL_newstate
_luaL_openlib
_luaL_optinteger
_luaL_optlstring
_luaL_optnumber
_luaL_optunsigned
_luaL_prepbuffsize
_luaL_pushmodule
_luaL_pushresult
_luaL_pushresultsize
_luaL_ref
_luaL_requiref
_luaL_setfuncs
_luaL_setmetatable
_luaL_testudata
_luaL_tolstring
_luaL_traceback
_luaL_unref
_luaL_where
_luaopen_base
_luaopen_bit32
_luaopen_coroutine
_luaopen_debug
_luaopen_io
_luaopen_math
_luaopen_os
_luaopen_string
_luaopen_table
_luaopen_package
_luaL_openlibs


_ZTISt8ios_base


_Unwind_SjLj_Register
_Unwind_SjLj_Resume
_Unwind_SjLj_Unregister
_ZNSaIcEC1Ev
_ZNSaIcED1Ev
_ZNSsC1EPKcRKSaIcE
_ZNSsD1Ev
_ZNSt15basic_streambufIcSt11char_traitsIcEE5sputcEc
__gxx_personality_sj0
_Unwind_SjLj_Register
_Unwind_SjLj_Resume
_Unwind_SjLj_Unregister
_ZN7JsonBox5Value15escapeToUnicodeEc
_ZNKSs4sizeEv
_ZNKSs5c_strEv
_ZNSaIcEC1Ev
_ZNSaIcED1Ev
_ZNSsC1EPKcRKSaIcE
_ZNSsD1Ev
_ZNSt15basic_streambufIcSt11char_traitsIcEE5sputcEc
_ZNSt15basic_streambufIcSt11char_traitsIcEE5sputnEPKci
_ZNSt8ios_base4InitC1Ev
_ZNSt8ios_base4InitD1Ev
_ZSt9terminatev
__gxx_personality_sj0
_Unwind_SjLj_Register
_Unwind_SjLj_Resume
_Unwind_SjLj_Unregister
_ZN7JsonBox5Value23escapeMinimumCharactersERKSs
_ZN7JsonBox5ValueC1ERKS0_
_ZN7JsonBox5ValueC1Ev
_ZN7JsonBox5ValueD1Ev
_ZN7JsonBox8IndenterC1Ev
_ZN7JsonBox8IndenterclERSt15basic_streambufIcSt11char_traitsIcEEi
_ZN7JsonBoxlsERSoRKNS_5ValueE
_ZNK7JsonBox5ValueeqERKS0_
_ZNK7JsonBox5ValueltERKS0_
_ZNKSs7compareERKSs
_ZNKSt9basic_iosIcSt11char_traitsIcEE5rdbufEv
_ZNSaIcEC1Ev
_ZNSaIcED1Ev
_ZNSolsEPFRSoS_E
_ZNSsC1EPKcRKSaIcE
_ZNSsC1ERKSs
_ZNSsD1Ev
_ZNSt15basic_streambufIcSt11char_traitsIcEE4syncEv
_ZNSt15basic_streambufIcSt11char_traitsIcEE5imbueERKSt6locale
_ZNSt15basic_streambufIcSt11char_traitsIcEE5uflowEv
_ZNSt15basic_streambufIcSt11char_traitsIcEE6setbufEPci
_ZNSt15basic_streambufIcSt11char_traitsIcEE6xsgetnEPci
_ZNSt15basic_streambufIcSt11char_traitsIcEE6xsputnEPKci
_ZNSt15basic_streambufIcSt11char_traitsIcEE7seekoffExSt12_Ios_SeekdirSt13_Ios_Openmode
_ZNSt15basic_streambufIcSt11char_traitsIcEE7seekposESt4fposI11__mbstate_tESt13_Ios_Openmode
_ZNSt15basic_streambufIcSt11char_traitsIcEE9pbackfailEi
_ZNSt15basic_streambufIcSt11char_traitsIcEE9showmanycEv
_ZNSt15basic_streambufIcSt11char_traitsIcEEC2Ev
_ZNSt15basic_streambufIcSt11char_traitsIcEED2Ev
_ZNSt8ios_base4InitC1Ev
_ZNSt8ios_base4InitD1Ev
_ZNSt9basic_iosIcSt11char_traitsIcEE5rdbufEPSt15basic_streambufIcS1_E
_ZSt17__throw_bad_allocv
_ZSt18_Rb_tree_decrementPSt18_Rb_tree_node_base
_ZSt18_Rb_tree_incrementPKSt18_Rb_tree_node_base
_ZSt18_Rb_tree_incrementPSt18_Rb_tree_node_base
_ZSt28_Rb_tree_rebalance_for_erasePSt18_Rb_tree_node_baseRS_
_ZSt29_Rb_tree_insert_and_rebalancebPSt18_Rb_tree_node_baseS0_RS_
_ZSt4endlIcSt11char_traitsIcEERSt13basic_ostreamIT_T0_ES6_
_ZSt9terminatev
_ZStlsISt11char_traitsIcEERSt13basic_ostreamIcT_ES5_c
_ZStlsIcSt11char_traitsIcESaIcEERSt13basic_ostreamIT_T0_ES7_RKSbIS4_S5_T1_E
_ZTISt15basic_streambufIcSt11char_traitsIcEE
_ZTVN10__cxxabiv120__si_class_type_infoE
_ZdlPv
_Znwj
__assert
__cxa_begin_catch
__cxa_end_catch
__cxa_rethrow
__gxx_personality_sj0
_Unwind_SjLj_Register
_Unwind_SjLj_Resume
_Unwind_SjLj_Unregister
_ZN9__gnu_cxx12__atomic_addEPVii
_ZN9__gnu_cxx18__exchange_and_addEPVii
_ZNKSs3endEv
_ZNKSs5beginEv
_ZNKSt18basic_stringstreamIcSt11char_traitsIcESaIcEE3strEv
_ZNKSt6locale2id5_M_idEv
_ZNSaIcED1Ev
_ZNSt18basic_stringstreamIcSt11char_traitsIcESaIcEEC1ESt13_Ios_Openmode
_ZNSt18basic_stringstreamIcSt11char_traitsIcESaIcEED1Ev
_ZNSt6localeC1Ev
_ZNSt6localeD1Ev
_ZNSt8ios_base6badbitE
_ZNSt8ios_base7_M_initEv
_ZNSt8ios_base7goodbitE
_ZNSt8ios_baseC2Ev
_ZNSt8ios_baseD2Ev
_ZSt16__throw_bad_castv
_ZSt17__throw_bad_allocv
_ZSt18uncaught_exceptionv
_ZSt19__throw_ios_failurePKc
_ZSt19__throw_logic_errorPKc
_ZSt20__throw_length_errorPKc
_ZSt9terminatev
_ZStlsISt11char_traitsIcEERSt13basic_ostreamIcT_ES5_c
_ZTISt8ios_base
_ZTVN10__cxxabiv117__class_type_infoE
_ZTVN10__cxxabiv120__si_class_type_infoE
_ZTVN10__cxxabiv121__vmi_class_type_infoE
_ZdlPv
_Znwj
__cxa_begin_catch
__cxa_call_unexpected
__cxa_end_catch
__cxa_rethrow
__gxx_personality_sj0
_Unwind_SjLj_Register
_Unwind_SjLj_Resume
_Unwind_SjLj_Unregister
_ZNKSs4sizeEv
_ZNKSs5c_strEv
_ZNSaIcEC1Ev
_ZNSaIcED1Ev
_ZNSsC1EPKcRKSaIcE
_ZNSsD1Ev
_ZNSt15basic_streambufIcSt11char_traitsIcEE5sputcEc
_ZNSt15basic_streambufIcSt11char_traitsIcEE5sputnEPKci
__gxx_personality_sj0
_Unwind_SjLj_Register
_Unwind_SjLj_Resume
_Unwind_SjLj_Unregister
_ZN7JsonBox5ValueC1ERKS0_
_ZN7JsonBox5ValueD1Ev
_ZN7JsonBox5ValueaSERKS0_
_ZN7JsonBox8IndenterC1Ev
_ZN7JsonBox8IndenterclERSt15basic_streambufIcSt11char_traitsIcEEi
_ZN7JsonBoxlsERSoRKNS_5ValueE
_ZNK7JsonBox5ValueeqERKS0_
_ZNK7JsonBox5ValueltERKS0_
_ZNKSt9basic_iosIcSt11char_traitsIcEE5rdbufEv
_ZNSaIcEC1Ev
_ZNSaIcED1Ev
_ZNSolsEPFRSoS_E
_ZNSsC1EPKcRKSaIcE
_ZNSsD1Ev
_ZNSt15basic_streambufIcSt11char_traitsIcEE4syncEv
_ZNSt15basic_streambufIcSt11char_traitsIcEE5imbueERKSt6locale
_ZNSt15basic_streambufIcSt11char_traitsIcEE5uflowEv
_ZNSt15basic_streambufIcSt11char_traitsIcEE6setbufEPci
_ZNSt15basic_streambufIcSt11char_traitsIcEE6xsgetnEPci
_ZNSt15basic_streambufIcSt11char_traitsIcEE6xsputnEPKci
_ZNSt15basic_streambufIcSt11char_traitsIcEE7seekoffExSt12_Ios_SeekdirSt13_Ios_Openmode
_ZNSt15basic_streambufIcSt11char_traitsIcEE7seekposESt4fposI11__mbstate_tESt13_Ios_Openmode
_ZNSt15basic_streambufIcSt11char_traitsIcEE9pbackfailEi
_ZNSt15basic_streambufIcSt11char_traitsIcEE9showmanycEv
_ZNSt15basic_streambufIcSt11char_traitsIcEEC2Ev
_ZNSt15basic_streambufIcSt11char_traitsIcEED2Ev
_ZNSt8ios_base4InitC1Ev
_ZNSt8ios_base4InitD1Ev
_ZNSt9basic_iosIcSt11char_traitsIcEE5rdbufEPSt15basic_streambufIcS1_E
_ZSt17__throw_bad_allocv
_ZSt20__throw_length_errorPKc
_ZSt20__throw_out_of_rangePKc
_ZSt4endlIcSt11char_traitsIcEERSt13basic_ostreamIT_T0_ES6_
_ZSt9terminatev
_ZStlsISt11char_traitsIcEERSt13basic_ostreamIcT_ES5_c
_ZTISt15basic_streambufIcSt11char_traitsIcEE
_ZTVN10__cxxabiv120__si_class_type_infoE
_ZdlPv
_Znwj
__assert
__cxa_begin_catch
__cxa_end_catch
__cxa_rethrow
__gxx_personality_sj0
_Unwind_SjLj_Register
_Unwind_SjLj_Resume
_Unwind_SjLj_Unregister
_ZNSaIcEC1Ev
_ZNSaIcED1Ev
_ZNSsC1EPKcRKSaIcE
_ZNSsD1Ev
_ZNSt15basic_streambufIcSt11char_traitsIcEE5sputcEc
__gxx_personality_sj0
_Unwind_SjLj_Register
_Unwind_SjLj_Resume
_Unwind_SjLj_Unregister
_ZN7JsonBox14SolidusEscaperC1Ev
_ZN7JsonBox14SolidusEscaperclERSt15basic_streambufIcSt11char_traitsIcEEi
_ZN7JsonBox15IndentCancellerC1Ev
_ZN7JsonBox15IndentCancellerclERSt15basic_streambufIcSt11char_traitsIcEEi
_ZN7JsonBox5Array4backEv
_ZN7JsonBox5Array8pop_backEv
_ZN7JsonBox5Array9push_backERKNS_5ValueE
_ZN7JsonBox5ArrayC1ERKS0_
_ZN7JsonBox5ArrayC1ERKSaINS_5ValueEE
_ZN7JsonBox5ArrayC1EjRKNS_5ValueERKSaIS1_E
_ZN7JsonBox5ArrayaSERKS0_
_ZN7JsonBox5ArrayixEj
_ZN7JsonBox6ObjectC1ERKS0_
_ZN7JsonBox6ObjectC1ERKSt4lessISsERKSaISt4pairIKSsNS_5ValueEEE
_ZN7JsonBox6ObjectaSERKS0_
_ZN7JsonBox6ObjectixERKSs
_ZN7JsonBox7Convert12encodeToUTF8ERKSbIiSt11char_traitsIiESaIiEE
_ZN7JsonBoxlsERSoRKNS_5ArrayE
_ZN7JsonBoxlsERSoRKNS_6ObjectE
_ZN9__gnu_cxx18__exchange_and_addEPVii
_ZNK7JsonBox5ArrayeqERKS0_
_ZNK7JsonBox5ArraygtERKS0_
_ZNK7JsonBox5ArrayltERKS0_
_ZNK7JsonBox6ObjecteqERKS0_
_ZNK7JsonBox6ObjectgtERKS0_
_ZNK7JsonBox6ObjectltERKS0_
_ZNKSs3endEv
_ZNKSs5beginEv
_ZNKSs5c_strEv
_ZNKSs5emptyEv
_ZNKSs7compareERKSs
_ZNKSsixEj
_ZNKSt18basic_stringstreamIcSt11char_traitsIcESaIcEE3strEv
_ZNKSt9basic_iosIcSt11char_traitsIcEE3eofEv
_ZNKSt9basic_iosIcSt11char_traitsIcEE4goodEv
_ZNKSt9basic_iosIcSt11char_traitsIcEE5rdbufEv
_ZNSaIcEC1Ev
_ZNSaIcED1Ev
_ZNSi3getERc
_ZNSi4peekEv
_ZNSi7putbackEc
_ZNSirsERd
_ZNSirsERi
_ZNSolsEPFRSoS_E
_ZNSolsEPFRSt8ios_baseS0_E
_ZNSolsEd
_ZNSolsEi
_ZNSs5clearEv
_ZNSsC1EPKcRKSaIcE
_ZNSsC1ERKSs
_ZNSsC1EjcRKSaIcE
_ZNSsC1Ev
_ZNSsD1Ev
_ZNSsaSEPKc
_ZNSsaSERKSs
_ZNSsixEj
_ZNSt14basic_ifstreamIcSt11char_traitsIcEE4openEPKcSt13_Ios_Openmode
_ZNSt14basic_ifstreamIcSt11char_traitsIcEE5closeEv
_ZNSt14basic_ifstreamIcSt11char_traitsIcEE7is_openEv
_ZNSt14basic_ifstreamIcSt11char_traitsIcEEC1Ev
_ZNSt14basic_ifstreamIcSt11char_traitsIcEED1Ev
_ZNSt14basic_ofstreamIcSt11char_traitsIcEE4openEPKcSt13_Ios_Openmode
_ZNSt14basic_ofstreamIcSt11char_traitsIcEE5closeEv
_ZNSt14basic_ofstreamIcSt11char_traitsIcEE7is_openEv
_ZNSt14basic_ofstreamIcSt11char_traitsIcEEC1Ev
_ZNSt14basic_ofstreamIcSt11char_traitsIcEED1Ev
_ZNSt15basic_streambufIcSt11char_traitsIcEE4syncEv
_ZNSt15basic_streambufIcSt11char_traitsIcEE5imbueERKSt6locale
_ZNSt15basic_streambufIcSt11char_traitsIcEE5uflowEv
_ZNSt15basic_streambufIcSt11char_traitsIcEE6setbufEPci
_ZNSt15basic_streambufIcSt11char_traitsIcEE6xsgetnEPci
_ZNSt15basic_streambufIcSt11char_traitsIcEE6xsputnEPKci
_ZNSt15basic_streambufIcSt11char_traitsIcEE7seekoffExSt12_Ios_SeekdirSt13_Ios_Openmode
_ZNSt15basic_streambufIcSt11char_traitsIcEE7seekposESt4fposI11__mbstate_tESt13_Ios_Openmode
_ZNSt15basic_streambufIcSt11char_traitsIcEE9pbackfailEi
_ZNSt15basic_streambufIcSt11char_traitsIcEE9showmanycEv
_ZNSt15basic_streambufIcSt11char_traitsIcEEC2Ev
_ZNSt15basic_streambufIcSt11char_traitsIcEED2Ev
_ZNSt18basic_stringstreamIcSt11char_traitsIcESaIcEE3strERKSs
_ZNSt18basic_stringstreamIcSt11char_traitsIcESaIcEEC1ERKSsSt13_Ios_Openmode
_ZNSt18basic_stringstreamIcSt11char_traitsIcESaIcEEC1ESt13_Ios_Openmode
_ZNSt18basic_stringstreamIcSt11char_traitsIcESaIcEED1Ev
_ZNSt8ios_base4InitC1Ev
_ZNSt8ios_base4InitD1Ev
_ZNSt9basic_iosIcSt11char_traitsIcEE5rdbufEPSt15basic_streambufIcS1_E
_ZSt17__throw_bad_allocv
_ZSt20__throw_length_errorPKc
_ZSt4cout
_ZSt4endlIcSt11char_traitsIcEERSt13basic_ostreamIT_T0_ES6_
_ZSt9terminatev
_ZStlsISt11char_traitsIcEERSt13basic_ostreamIcT_ES5_PKc
_ZStlsISt11char_traitsIcEERSt13basic_ostreamIcT_ES5_c
_ZStlsIcSt11char_traitsIcEERSt13basic_ostreamIT_T0_ES6_St5_Setw
_ZStlsIcSt11char_traitsIcEERSt13basic_ostreamIT_T0_ES6_St8_SetfillIS3_E
_ZStlsIcSt11char_traitsIcESaIcEERSt13basic_ostreamIT_T0_ES7_RKSbIS4_S5_T1_E
_ZTISt15basic_streambufIcSt11char_traitsIcEE
_ZTVN10__cxxabiv120__si_class_type_infoE
_ZdlPv
_Znwj
__assert
__gxx_personality_sj0
_ZN7JsonBox8IndenterC1Ev
_ZN7JsonBox8IndenterC2Ev
_ZN7JsonBox8IndenterclERSt15basic_streambufIcSt11char_traitsIcEEi
_ZN7JsonBox7EscaperC1Ev
_ZN7JsonBox7EscaperC2Ev
_ZN7JsonBox7EscaperclERSt15basic_streambufIcSt11char_traitsIcEEi
_ZN7JsonBox6Object11equal_rangeERKSs
_ZN7JsonBox6Object11lower_boundERKSs
_ZN7JsonBox6Object11upper_boundERKSs
_ZN7JsonBox6Object3endEv
_ZN7JsonBox6Object4findERKSs
_ZN7JsonBox6Object4rendEv
_ZN7JsonBox6Object4swapERS0_
_ZN7JsonBox6Object5beginEv
_ZN7JsonBox6Object5clearEv
_ZN7JsonBox6Object5eraseERKSs
_ZN7JsonBox6Object5eraseESt17_Rb_tree_iteratorISt4pairIKSsNS_5ValueEEE
_ZN7JsonBox6Object5eraseESt17_Rb_tree_iteratorISt4pairIKSsNS_5ValueEEES6_
_ZN7JsonBox6Object6insertERKSt4pairIKSsNS_5ValueEE
_ZN7JsonBox6Object6insertESt17_Rb_tree_iteratorISt4pairIKSsNS_5ValueEEERKS5_
_ZN7JsonBox6Object6rbeginEv
_ZN7JsonBox6ObjectC1ERKS0_
_ZN7JsonBox6ObjectC1ERKSt4lessISsERKSaISt4pairIKSsNS_5ValueEEE
_ZN7JsonBox6ObjectC2ERKS0_
_ZN7JsonBox6ObjectC2ERKSt4lessISsERKSaISt4pairIKSsNS_5ValueEEE
_ZN7JsonBox6ObjectaSERKS0_
_ZN7JsonBox6ObjectixERKSs
_ZN7JsonBoxlsERSoRKNS_6ObjectE
_ZNK7JsonBox6Object11equal_rangeERKSs
_ZNK7JsonBox6Object11lower_boundERKSs
_ZNK7JsonBox6Object11upper_boundERKSs
_ZNK7JsonBox6Object13get_allocatorEv
_ZNK7JsonBox6Object3endEv
_ZNK7JsonBox6Object4findERKSs
_ZNK7JsonBox6Object4rendEv
_ZNK7JsonBox6Object4sizeEv
_ZNK7JsonBox6Object5beginEv
_ZNK7JsonBox6Object5countERKSs
_ZNK7JsonBox6Object5emptyEv
_ZNK7JsonBox6Object6rbeginEv
_ZNK7JsonBox6Object8key_compEv
_ZNK7JsonBox6Object8max_sizeEv
_ZNK7JsonBox6ObjecteqERKS0_
_ZNK7JsonBox6ObjectgeERKS0_
_ZNK7JsonBox6ObjectgtERKS0_
_ZNK7JsonBox6ObjectleERKS0_
_ZNK7JsonBox6ObjectltERKS0_
_ZNK7JsonBox6ObjectneERKS0_
_ZN7JsonBox7Convert10decodeUTF8ERKSs
_ZN7JsonBox7Convert12encodeToUTF8ERKSbIiSt11char_traitsIiESaIiEE
_ZN7JsonBox14SolidusEscaperC1Ev
_ZN7JsonBox14SolidusEscaperC2Ev
_ZN7JsonBox14SolidusEscaperclERSt15basic_streambufIcSt11char_traitsIcEEi
_ZN7JsonBox5Array2atEj
_ZN7JsonBox5Array3endEv
_ZN7JsonBox5Array4backEv
_ZN7JsonBox5Array4rendEv
_ZN7JsonBox5Array4swapERS0_
_ZN7JsonBox5Array5beginEv
_ZN7JsonBox5Array5clearEv
_ZN7JsonBox5Array5eraseEN9__gnu_cxx17__normal_iteratorIPNS_5ValueESt6vectorIS3_SaIS3_EEEE
_ZN7JsonBox5Array5eraseEN9__gnu_cxx17__normal_iteratorIPNS_5ValueESt6vectorIS3_SaIS3_EEEES8_
_ZN7JsonBox5Array5frontEv
_ZN7JsonBox5Array6assignEjRKNS_5ValueE
_ZN7JsonBox5Array6insertEN9__gnu_cxx17__normal_iteratorIPNS_5ValueESt6vectorIS3_SaIS3_EEEERKS3_
_ZN7JsonBox5Array6insertEN9__gnu_cxx17__normal_iteratorIPNS_5ValueESt6vectorIS3_SaIS3_EEEEjRKS3_
_ZN7JsonBox5Array6rbeginEv
_ZN7JsonBox5Array6resizeEjRKNS_5ValueE
_ZN7JsonBox5Array7reserveEj
_ZN7JsonBox5Array8pop_backEv
_ZN7JsonBox5Array9push_backERKNS_5ValueE
_ZN7JsonBox5ArrayC1ERKS0_
_ZN7JsonBox5ArrayC1ERKSaINS_5ValueEE
_ZN7JsonBox5ArrayC1EjRKNS_5ValueERKSaIS1_E
_ZN7JsonBox5ArrayC2ERKS0_
_ZN7JsonBox5ArrayC2ERKSaINS_5ValueEE
_ZN7JsonBox5ArrayC2EjRKNS_5ValueERKSaIS1_E
_ZN7JsonBox5ArrayaSERKS0_
_ZN7JsonBox5ArrayixEj
_ZN7JsonBoxlsERSoRKNS_5ArrayE
_ZNK7JsonBox5Array13get_allocatorEv
_ZNK7JsonBox5Array2atEj
_ZNK7JsonBox5Array3endEv
_ZNK7JsonBox5Array4backEv
_ZNK7JsonBox5Array4rendEv
_ZNK7JsonBox5Array4sizeEv
_ZNK7JsonBox5Array5beginEv
_ZNK7JsonBox5Array5emptyEv
_ZNK7JsonBox5Array5frontEv
_ZNK7JsonBox5Array6rbeginEv
_ZNK7JsonBox5Array8capacityEv
_ZNK7JsonBox5Array8max_sizeEv
_ZNK7JsonBox5ArrayeqERKS0_
_ZNK7JsonBox5ArraygeERKS0_
_ZNK7JsonBox5ArraygtERKS0_
_ZNK7JsonBox5ArrayixEj
_ZNK7JsonBox5ArrayleERKS0_
_ZNK7JsonBox5ArrayltERKS0_
_ZNK7JsonBox5ArrayneERKS0_
_ZN7JsonBox15IndentCancellerC1Ev
_ZN7JsonBox15IndentCancellerC2Ev
_ZN7JsonBox15IndentCancellerclERSt15basic_streambufIcSt11char_traitsIcEEi
_ZN7JsonBox5Value10isHexDigitEc
_ZN7JsonBox5Value10readNumberERSiRS0_
_ZN7JsonBox5Value10readObjectERSiRNS_6ObjectE
_ZN7JsonBox5Value10readStringERSiRSs
_ZN7JsonBox5Value10setBooleanEb
_ZN7JsonBox5Value11EMPTY_ARRAYE
_ZN7JsonBox5Value12EMPTY_DOUBLEE
_ZN7JsonBox5Value12EMPTY_OBJECTE
_ZN7JsonBox5Value12EMPTY_STRINGE
_ZN7JsonBox5Value12isWhiteSpaceEc
_ZN7JsonBox5Value12loadFromFileERKSs
_ZN7JsonBox5Value14loadFromStreamERSi
_ZN7JsonBox5Value14loadFromStringERKSs
_ZN7JsonBox5Value15escapeToUnicodeEc
_ZN7JsonBox5Value16ValueDataPointerC1EPNS_5ArrayE
_ZN7JsonBox5Value16ValueDataPointerC1EPNS_6ObjectE
_ZN7JsonBox5Value16ValueDataPointerC1EPSs
_ZN7JsonBox5Value16ValueDataPointerC1EPb
_ZN7JsonBox5Value16ValueDataPointerC1EPd
_ZN7JsonBox5Value16ValueDataPointerC1EPi
_ZN7JsonBox5Value16ValueDataPointerC1Ev
_ZN7JsonBox5Value16ValueDataPointerC2EPNS_5ArrayE
_ZN7JsonBox5Value16ValueDataPointerC2EPNS_6ObjectE
_ZN7JsonBox5Value16ValueDataPointerC2EPSs
_ZN7JsonBox5Value16ValueDataPointerC2EPb
_ZN7JsonBox5Value16ValueDataPointerC2EPd
_ZN7JsonBox5Value16ValueDataPointerC2EPi
_ZN7JsonBox5Value16ValueDataPointerC2Ev
_ZN7JsonBox5Value19escapeAllCharactersERKSs
_ZN7JsonBox5Value19readToNonWhiteSpaceERSiRc
_ZN7JsonBox5Value23escapeMinimumCharactersERKSs
_ZN7JsonBox5Value5clearEv
_ZN7JsonBox5Value6setIntEi
_ZN7JsonBox5Value7setNullEv
_ZN7JsonBox5Value8setArrayERKNS_5ArrayE
_ZN7JsonBox5Value9readArrayERSiRNS_5ArrayE
_ZN7JsonBox5Value9setDoubleEd
_ZN7JsonBox5Value9setObjectERKNS_6ObjectE
_ZN7JsonBox5Value9setStringERKSs
_ZN7JsonBox5ValueC1EPKc
_ZN7JsonBox5ValueC1ERKNS_5ArrayE
_ZN7JsonBox5ValueC1ERKNS_6ObjectE
_ZN7JsonBox5ValueC1ERKS0_
_ZN7JsonBox5ValueC1ERKSs
_ZN7JsonBox5ValueC1ERSi
_ZN7JsonBox5ValueC1Eb
_ZN7JsonBox5ValueC1Ed
_ZN7JsonBox5ValueC1Ei
_ZN7JsonBox5ValueC1Ev
_ZN7JsonBox5ValueC2EPKc
_ZN7JsonBox5ValueC2ERKNS_5ArrayE
_ZN7JsonBox5ValueC2ERKNS_6ObjectE
_ZN7JsonBox5ValueC2ERKS0_
_ZN7JsonBox5ValueC2ERKSs
_ZN7JsonBox5ValueC2ERSi
_ZN7JsonBox5ValueC2Eb
_ZN7JsonBox5ValueC2Ed
_ZN7JsonBox5ValueC2Ei
_ZN7JsonBox5ValueC2Ev
_ZN7JsonBox5ValueD1Ev
_ZN7JsonBox5ValueD2Ev
_ZN7JsonBox5ValueaSERKS0_
_ZN7JsonBox5ValueixEPKc
_ZN7JsonBox5ValueixERKSs
_ZN7JsonBox5ValueixEj
_ZN7JsonBoxlsERSoRKNS_5ValueE
_ZNK7JsonBox5Value10getBooleanEv
_ZNK7JsonBox5Value11writeToFileERKSsbb
_ZNK7JsonBox5Value13writeToStreamERSobb
_ZNK7JsonBox5Value6getIntEv
_ZNK7JsonBox5Value6isNullEv
_ZNK7JsonBox5Value6outputERSobb
_ZNK7JsonBox5Value7getTypeEv
_ZNK7JsonBox5Value7isArrayEv
_ZNK7JsonBox5Value8getArrayEv
_ZNK7JsonBox5Value8isDoubleEv
_ZNK7JsonBox5Value8isObjectEv
_ZNK7JsonBox5Value8isStringEv
_ZNK7JsonBox5Value9getDoubleEv
_ZNK7JsonBox5Value9getObjectEv
_ZNK7JsonBox5Value9getStringEv
_ZNK7JsonBox5Value9isBooleanEv
_ZNK7JsonBox5Value9isIntegerEv
_ZNK7JsonBox5ValueeqERKS0_
_ZNK7JsonBox5ValuegeERKS0_
_ZNK7JsonBox5ValuegtERKS0_
_ZNK7JsonBox5ValueleERKS0_
_ZNK7JsonBox5ValueltERKS0_
_ZNK7JsonBox5ValueneERKS0_
_ZNSt11char_traitsIcE12to_char_typeERKi
abort
memcpy
memmove
memset
_ZNSt11char_traitsIcE12to_char_typeERKi
abort
memcpy
memmove
memset
_ZN7JsonBox12OutputFilterINS_8IndenterEE4syncEv
_ZN7JsonBox12OutputFilterINS_8IndenterEE6setbufEPci
_ZN7JsonBox12OutputFilterINS_8IndenterEE8overflowEi
_ZN7JsonBox12OutputFilterINS_8IndenterEE9underflowEv
_ZN7JsonBox12OutputFilterINS_8IndenterEEC1EPSt15basic_streambufIcSt11char_traitsIcEEb
_ZN7JsonBox12OutputFilterINS_8IndenterEED0Ev
_ZN7JsonBox12OutputFilterINS_8IndenterEED1Ev
_ZN9__gnu_cxx13new_allocatorISt13_Rb_tree_nodeISt4pairIKSsN7JsonBox5ValueEEEE10deallocateEPS7_j
_ZN9__gnu_cxx13new_allocatorISt13_Rb_tree_nodeISt4pairIKSsN7JsonBox5ValueEEEE8allocateEjPKv
_ZN9__gnu_cxx13new_allocatorISt13_Rb_tree_nodeISt4pairIKSsN7JsonBox5ValueEEEEC2ERKS8_
_ZN9__gnu_cxx13new_allocatorISt13_Rb_tree_nodeISt4pairIKSsN7JsonBox5ValueEEEEC2Ev
_ZN9__gnu_cxx13new_allocatorISt13_Rb_tree_nodeISt4pairIKSsN7JsonBox5ValueEEEED2Ev
_ZN9__gnu_cxx13new_allocatorISt4pairIKSsN7JsonBox5ValueEEE7destroyEPS5_
_ZN9__gnu_cxx13new_allocatorISt4pairIKSsN7JsonBox5ValueEEE9constructEPS5_RKS5_
_ZN9__gnu_cxx13new_allocatorISt4pairIKSsN7JsonBox5ValueEEEC2Ev
_ZN9__gnu_cxx13new_allocatorISt4pairIKSsN7JsonBox5ValueEEED2Ev
_ZNK7JsonBox12OutputFilterINS_8IndenterEE14getDestinationEv
_ZNK9__gnu_cxx13new_allocatorISt13_Rb_tree_nodeISt4pairIKSsN7JsonBox5ValueEEEE8max_sizeEv
_ZNK9__gnu_cxx13new_allocatorISt4pairIKSsN7JsonBox5ValueEEE8max_sizeEv
_ZNKSt10_Select1stISt4pairIKSsN7JsonBox5ValueEEEclERKS4_
_ZNKSt17_Rb_tree_iteratorISt4pairIKSsN7JsonBox5ValueEEEdeEv
_ZNKSt17_Rb_tree_iteratorISt4pairIKSsN7JsonBox5ValueEEEeqERKS5_
_ZNKSt17_Rb_tree_iteratorISt4pairIKSsN7JsonBox5ValueEEEneERKS5_
_ZNKSt23_Rb_tree_const_iteratorISt4pairIKSsN7JsonBox5ValueEEEdeEv
_ZNKSt23_Rb_tree_const_iteratorISt4pairIKSsN7JsonBox5ValueEEEeqERKS5_
_ZNKSt23_Rb_tree_const_iteratorISt4pairIKSsN7JsonBox5ValueEEEneERKS5_
_ZNKSt23_Rb_tree_const_iteratorISt4pairIKSsN7JsonBox5ValueEEEptEv
_ZNKSt3mapISsN7JsonBox5ValueESt4lessISsESaISt4pairIKSsS1_EEE11equal_rangeERS5_
_ZNKSt3mapISsN7JsonBox5ValueESt4lessISsESaISt4pairIKSsS1_EEE11lower_boundERS5_
_ZNKSt3mapISsN7JsonBox5ValueESt4lessISsESaISt4pairIKSsS1_EEE11upper_boundERS5_
_ZNKSt3mapISsN7JsonBox5ValueESt4lessISsESaISt4pairIKSsS1_EEE13get_allocatorEv
_ZNKSt3mapISsN7JsonBox5ValueESt4lessISsESaISt4pairIKSsS1_EEE3endEv
_ZNKSt3mapISsN7JsonBox5ValueESt4lessISsESaISt4pairIKSsS1_EEE4findERS5_
_ZNKSt3mapISsN7JsonBox5ValueESt4lessISsESaISt4pairIKSsS1_EEE4rendEv
_ZNKSt3mapISsN7JsonBox5ValueESt4lessISsESaISt4pairIKSsS1_EEE4sizeEv
_ZNKSt3mapISsN7JsonBox5ValueESt4lessISsESaISt4pairIKSsS1_EEE5beginEv
_ZNKSt3mapISsN7JsonBox5ValueESt4lessISsESaISt4pairIKSsS1_EEE5countERS5_
_ZNKSt3mapISsN7JsonBox5ValueESt4lessISsESaISt4pairIKSsS1_EEE5emptyEv
_ZNKSt3mapISsN7JsonBox5ValueESt4lessISsESaISt4pairIKSsS1_EEE6rbeginEv
_ZNKSt3mapISsN7JsonBox5ValueESt4lessISsESaISt4pairIKSsS1_EEE8key_compEv
_ZNKSt3mapISsN7JsonBox5ValueESt4lessISsESaISt4pairIKSsS1_EEE8max_sizeEv
_ZNKSt4lessISsEclERKSsS2_
_ZNKSt8_Rb_treeISsSt4pairIKSsN7JsonBox5ValueEESt10_Select1stIS4_ESt4lessISsESaIS4_EE11equal_rangeERS1_
_ZNKSt8_Rb_treeISsSt4pairIKSsN7JsonBox5ValueEESt10_Select1stIS4_ESt4lessISsESaIS4_EE11lower_boundERS1_
_ZNKSt8_Rb_treeISsSt4pairIKSsN7JsonBox5ValueEESt10_Select1stIS4_ESt4lessISsESaIS4_EE11upper_boundERS1_
_ZNKSt8_Rb_treeISsSt4pairIKSsN7JsonBox5ValueEESt10_Select1stIS4_ESt4lessISsESaIS4_EE13get_allocatorEv
_ZNKSt8_Rb_treeISsSt4pairIKSsN7JsonBox5ValueEESt10_Select1stIS4_ESt4lessISsESaIS4_EE21_M_get_Node_allocatorEv
_ZNKSt8_Rb_treeISsSt4pairIKSsN7JsonBox5ValueEESt10_Select1stIS4_ESt4lessISsESaIS4_EE3endEv
_ZNKSt8_Rb_treeISsSt4pairIKSsN7JsonBox5ValueEESt10_Select1stIS4_ESt4lessISsESaIS4_EE4findERS1_
_ZNKSt8_Rb_treeISsSt4pairIKSsN7JsonBox5ValueEESt10_Select1stIS4_ESt4lessISsESaIS4_EE4rendEv
_ZNKSt8_Rb_treeISsSt4pairIKSsN7JsonBox5ValueEESt10_Select1stIS4_ESt4lessISsESaIS4_EE4sizeEv
_ZNKSt8_Rb_treeISsSt4pairIKSsN7JsonBox5ValueEESt10_Select1stIS4_ESt4lessISsESaIS4_EE5beginEv
_ZNKSt8_Rb_treeISsSt4pairIKSsN7JsonBox5ValueEESt10_Select1stIS4_ESt4lessISsESaIS4_EE5emptyEv
_ZNKSt8_Rb_treeISsSt4pairIKSsN7JsonBox5ValueEESt10_Select1stIS4_ESt4lessISsESaIS4_EE6_M_endEv
_ZNKSt8_Rb_treeISsSt4pairIKSsN7JsonBox5ValueEESt10_Select1stIS4_ESt4lessISsESaIS4_EE6rbeginEv
_ZNKSt8_Rb_treeISsSt4pairIKSsN7JsonBox5ValueEESt10_Select1stIS4_ESt4lessISsESaIS4_EE7_M_rootEv
_ZNKSt8_Rb_treeISsSt4pairIKSsN7JsonBox5ValueEESt10_Select1stIS4_ESt4lessISsESaIS4_EE8_M_beginEv
_ZNKSt8_Rb_treeISsSt4pairIKSsN7JsonBox5ValueEESt10_Select1stIS4_ESt4lessISsESaIS4_EE8key_compEv
_ZNKSt8_Rb_treeISsSt4pairIKSsN7JsonBox5ValueEESt10_Select1stIS4_ESt4lessISsESaIS4_EE8max_sizeEv
_ZNSaISt13_Rb_tree_nodeISt4pairIKSsN7JsonBox5ValueEEEEC1IS4_EERKSaIT_E
_ZNSaISt13_Rb_tree_nodeISt4pairIKSsN7JsonBox5ValueEEEEC2ERKS6_
_ZNSaISt13_Rb_tree_nodeISt4pairIKSsN7JsonBox5ValueEEEED1Ev
_ZNSaISt13_Rb_tree_nodeISt4pairIKSsN7JsonBox5ValueEEEED2Ev
_ZNSaISt4pairIKSsN7JsonBox5ValueEEEC1ISt13_Rb_tree_nodeIS3_EEERKSaIT_E
_ZNSaISt4pairIKSsN7JsonBox5ValueEEED1Ev
_ZNSt10_Select1stISt4pairIKSsN7JsonBox5ValueEEEC1Ev
_ZNSt11char_traitsIcE3eofEv
_ZNSt12__alloc_swapISaISt13_Rb_tree_nodeISt4pairIKSsN7JsonBox5ValueEEEELb1EE8_S_do_itERS7_S9_
_ZNSt14numeric_limitsIhE3maxEv
_ZNSt14unary_functionISt4pairIKSsN7JsonBox5ValueEES1_EC2Ev
_ZNSt16reverse_iteratorISt17_Rb_tree_iteratorISt4pairIKSsN7JsonBox5ValueEEEEC1ES6_
_ZNSt16reverse_iteratorISt23_Rb_tree_const_iteratorISt4pairIKSsN7JsonBox5ValueEEEEC1ES6_
_ZNSt17_Rb_tree_iteratorISt4pairIKSsN7JsonBox5ValueEEEC1EPSt13_Rb_tree_nodeIS4_E
_ZNSt17_Rb_tree_iteratorISt4pairIKSsN7JsonBox5ValueEEEmmEv
_ZNSt17_Rb_tree_iteratorISt4pairIKSsN7JsonBox5ValueEEEppEi
_ZNSt17_Rb_tree_iteratorISt4pairIKSsN7JsonBox5ValueEEEppEv
_ZNSt18_Rb_tree_node_base10_S_maximumEPS_
_ZNSt18_Rb_tree_node_base10_S_minimumEPS_
_ZNSt23_Rb_tree_const_iteratorISt4pairIKSsN7JsonBox5ValueEEEC1EPKSt13_Rb_tree_nodeIS4_E
_ZNSt23_Rb_tree_const_iteratorISt4pairIKSsN7JsonBox5ValueEEEppEv
_ZNSt3mapISsN7JsonBox5ValueESt4lessISsESaISt4pairIKSsS1_EEE11equal_rangeERS5_
_ZNSt3mapISsN7JsonBox5ValueESt4lessISsESaISt4pairIKSsS1_EEE11lower_boundERS5_
_ZNSt3mapISsN7JsonBox5ValueESt4lessISsESaISt4pairIKSsS1_EEE11upper_boundERS5_
_ZNSt3mapISsN7JsonBox5ValueESt4lessISsESaISt4pairIKSsS1_EEE3endEv
_ZNSt3mapISsN7JsonBox5ValueESt4lessISsESaISt4pairIKSsS1_EEE4findERS5_
_ZNSt3mapISsN7JsonBox5ValueESt4lessISsESaISt4pairIKSsS1_EEE4rendEv
_ZNSt3mapISsN7JsonBox5ValueESt4lessISsESaISt4pairIKSsS1_EEE4swapERS8_
_ZNSt3mapISsN7JsonBox5ValueESt4lessISsESaISt4pairIKSsS1_EEE5beginEv
_ZNSt3mapISsN7JsonBox5ValueESt4lessISsESaISt4pairIKSsS1_EEE5clearEv
_ZNSt3mapISsN7JsonBox5ValueESt4lessISsESaISt4pairIKSsS1_EEE5eraseERS5_
_ZNSt3mapISsN7JsonBox5ValueESt4lessISsESaISt4pairIKSsS1_EEE5eraseESt17_Rb_tree_iteratorIS6_E
_ZNSt3mapISsN7JsonBox5ValueESt4lessISsESaISt4pairIKSsS1_EEE5eraseESt17_Rb_tree_iteratorIS6_ESA_
_ZNSt3mapISsN7JsonBox5ValueESt4lessISsESaISt4pairIKSsS1_EEE6insertERKS6_
_ZNSt3mapISsN7JsonBox5ValueESt4lessISsESaISt4pairIKSsS1_EEE6insertESt17_Rb_tree_iteratorIS6_ERKS6_
_ZNSt3mapISsN7JsonBox5ValueESt4lessISsESaISt4pairIKSsS1_EEE6rbeginEv
_ZNSt3mapISsN7JsonBox5ValueESt4lessISsESaISt4pairIKSsS1_EEEC1ERKS3_RKS7_
_ZNSt3mapISsN7JsonBox5ValueESt4lessISsESaISt4pairIKSsS1_EEEC1ERKS8_
_ZNSt3mapISsN7JsonBox5ValueESt4lessISsESaISt4pairIKSsS1_EEEaSERKS8_
_ZNSt3mapISsN7JsonBox5ValueESt4lessISsESaISt4pairIKSsS1_EEEixERS5_
_ZNSt4pairIKSsN7JsonBox5ValueEEC1ERKS3_
_ZNSt4pairIKSsN7JsonBox5ValueEEC1ERS0_RKS2_
_ZNSt4pairIKSsN7JsonBox5ValueEED1Ev
_ZNSt4pairISt17_Rb_tree_iteratorIS_IKSsN7JsonBox5ValueEEES5_EC1ERKS5_S8_
_ZNSt4pairISt17_Rb_tree_iteratorIS_IKSsN7JsonBox5ValueEEEbEC1ERKS5_RKb
_ZNSt4pairISt23_Rb_tree_const_iteratorIS_IKSsN7JsonBox5ValueEEES5_EC1ERKS5_S8_
_ZNSt8_Rb_treeISsSt4pairIKSsN7JsonBox5ValueEESt10_Select1stIS4_ESt4lessISsESaIS4_EE10_S_maximumEPSt18_Rb_tree_node_base
_ZNSt8_Rb_treeISsSt4pairIKSsN7JsonBox5ValueEESt10_Select1stIS4_ESt4lessISsESaIS4_EE10_S_minimumEPSt18_Rb_tree_node_base
_ZNSt8_Rb_treeISsSt4pairIKSsN7JsonBox5ValueEESt10_Select1stIS4_ESt4lessISsESaIS4_EE11_M_get_nodeEv
_ZNSt8_Rb_treeISsSt4pairIKSsN7JsonBox5ValueEESt10_Select1stIS4_ESt4lessISsESaIS4_EE11_M_leftmostEv
_ZNSt8_Rb_treeISsSt4pairIKSsN7JsonBox5ValueEESt10_Select1stIS4_ESt4lessISsESaIS4_EE11_M_put_nodeEPSt13_Rb_tree_nodeIS4_E
_ZNSt8_Rb_treeISsSt4pairIKSsN7JsonBox5ValueEESt10_Select1stIS4_ESt4lessISsESaIS4_EE11equal_rangeERS1_
_ZNSt8_Rb_treeISsSt4pairIKSsN7JsonBox5ValueEESt10_Select1stIS4_ESt4lessISsESaIS4_EE11lower_boundERS1_
_ZNSt8_Rb_treeISsSt4pairIKSsN7JsonBox5ValueEESt10_Select1stIS4_ESt4lessISsESaIS4_EE11upper_boundERS1_
_ZNSt8_Rb_treeISsSt4pairIKSsN7JsonBox5ValueEESt10_Select1stIS4_ESt4lessISsESaIS4_EE12_M_rightmostEv
_ZNSt8_Rb_treeISsSt4pairIKSsN7JsonBox5ValueEESt10_Select1stIS4_ESt4lessISsESaIS4_EE13_M_clone_nodeEPKSt13_Rb_tree_nodeIS4_E
_ZNSt8_Rb_treeISsSt4pairIKSsN7JsonBox5ValueEESt10_Select1stIS4_ESt4lessISsESaIS4_EE13_Rb_tree_implIS8_Lb0EE13_M_initializeEv
_ZNSt8_Rb_treeISsSt4pairIKSsN7JsonBox5ValueEESt10_Select1stIS4_ESt4lessISsESaIS4_EE13_Rb_tree_implIS8_Lb0EEC1ERKS8_RKSaISt13_Rb_tree_nodeIS4_EE
_ZNSt8_Rb_treeISsSt4pairIKSsN7JsonBox5ValueEESt10_Select1stIS4_ESt4lessISsESaIS4_EE13_Rb_tree_implIS8_Lb0EED1Ev
_ZNSt8_Rb_treeISsSt4pairIKSsN7JsonBox5ValueEESt10_Select1stIS4_ESt4lessISsESaIS4_EE14_M_create_nodeERKS4_
_ZNSt8_Rb_treeISsSt4pairIKSsN7JsonBox5ValueEESt10_Select1stIS4_ESt4lessISsESaIS4_EE15_M_destroy_nodeEPSt13_Rb_tree_nodeIS4_E
_ZNSt8_Rb_treeISsSt4pairIKSsN7JsonBox5ValueEESt10_Select1stIS4_ESt4lessISsESaIS4_EE16_M_insert_uniqueERKS4_
_ZNSt8_Rb_treeISsSt4pairIKSsN7JsonBox5ValueEESt10_Select1stIS4_ESt4lessISsESaIS4_EE16_M_insert_uniqueESt17_Rb_tree_iteratorIS4_ERKS4_
_ZNSt8_Rb_treeISsSt4pairIKSsN7JsonBox5ValueEESt10_Select1stIS4_ESt4lessISsESaIS4_EE21_M_get_Node_allocatorEv
_ZNSt8_Rb_treeISsSt4pairIKSsN7JsonBox5ValueEESt10_Select1stIS4_ESt4lessISsESaIS4_EE3endEv
_ZNSt8_Rb_treeISsSt4pairIKSsN7JsonBox5ValueEESt10_Select1stIS4_ESt4lessISsESaIS4_EE4findERS1_
_ZNSt8_Rb_treeISsSt4pairIKSsN7JsonBox5ValueEESt10_Select1stIS4_ESt4lessISsESaIS4_EE4rendEv
_ZNSt8_Rb_treeISsSt4pairIKSsN7JsonBox5ValueEESt10_Select1stIS4_ESt4lessISsESaIS4_EE4swapERSA_
_ZNSt8_Rb_treeISsSt4pairIKSsN7JsonBox5ValueEESt10_Select1stIS4_ESt4lessISsESaIS4_EE5beginEv
_ZNSt8_Rb_treeISsSt4pairIKSsN7JsonBox5ValueEESt10_Select1stIS4_ESt4lessISsESaIS4_EE5clearEv
_ZNSt8_Rb_treeISsSt4pairIKSsN7JsonBox5ValueEESt10_Select1stIS4_ESt4lessISsESaIS4_EE5eraseERS1_
_ZNSt8_Rb_treeISsSt4pairIKSsN7JsonBox5ValueEESt10_Select1stIS4_ESt4lessISsESaIS4_EE5eraseESt17_Rb_tree_iteratorIS4_E
_ZNSt8_Rb_treeISsSt4pairIKSsN7JsonBox5ValueEESt10_Select1stIS4_ESt4lessISsESaIS4_EE5eraseESt17_Rb_tree_iteratorIS4_ESC_
_ZNSt8_Rb_treeISsSt4pairIKSsN7JsonBox5ValueEESt10_Select1stIS4_ESt4lessISsESaIS4_EE6_M_endEv
_ZNSt8_Rb_treeISsSt4pairIKSsN7JsonBox5ValueEESt10_Select1stIS4_ESt4lessISsESaIS4_EE6_S_keyEPKSt13_Rb_tree_nodeIS4_E
_ZNSt8_Rb_treeISsSt4pairIKSsN7JsonBox5ValueEESt10_Select1stIS4_ESt4lessISsESaIS4_EE6_S_keyEPKSt18_Rb_tree_node_base
_ZNSt8_Rb_treeISsSt4pairIKSsN7JsonBox5ValueEESt10_Select1stIS4_ESt4lessISsESaIS4_EE6rbeginEv
_ZNSt8_Rb_treeISsSt4pairIKSsN7JsonBox5ValueEESt10_Select1stIS4_ESt4lessISsESaIS4_EE7_M_copyEPKSt13_Rb_tree_nodeIS4_EPSC_
_ZNSt8_Rb_treeISsSt4pairIKSsN7JsonBox5ValueEESt10_Select1stIS4_ESt4lessISsESaIS4_EE7_M_rootEv
_ZNSt8_Rb_treeISsSt4pairIKSsN7JsonBox5ValueEESt10_Select1stIS4_ESt4lessISsESaIS4_EE7_S_leftEPKSt18_Rb_tree_node_base
_ZNSt8_Rb_treeISsSt4pairIKSsN7JsonBox5ValueEESt10_Select1stIS4_ESt4lessISsESaIS4_EE7_S_leftEPSt18_Rb_tree_node_base
_ZNSt8_Rb_treeISsSt4pairIKSsN7JsonBox5ValueEESt10_Select1stIS4_ESt4lessISsESaIS4_EE8_M_beginEv
_ZNSt8_Rb_treeISsSt4pairIKSsN7JsonBox5ValueEESt10_Select1stIS4_ESt4lessISsESaIS4_EE8_M_eraseEPSt13_Rb_tree_nodeIS4_E
_ZNSt8_Rb_treeISsSt4pairIKSsN7JsonBox5ValueEESt10_Select1stIS4_ESt4lessISsESaIS4_EE8_S_rightEPKSt18_Rb_tree_node_base
_ZNSt8_Rb_treeISsSt4pairIKSsN7JsonBox5ValueEESt10_Select1stIS4_ESt4lessISsESaIS4_EE8_S_rightEPSt18_Rb_tree_node_base
_ZNSt8_Rb_treeISsSt4pairIKSsN7JsonBox5ValueEESt10_Select1stIS4_ESt4lessISsESaIS4_EE8_S_valueEPKSt13_Rb_tree_nodeIS4_E
_ZNSt8_Rb_treeISsSt4pairIKSsN7JsonBox5ValueEESt10_Select1stIS4_ESt4lessISsESaIS4_EE8_S_valueEPKSt18_Rb_tree_node_base
_ZNSt8_Rb_treeISsSt4pairIKSsN7JsonBox5ValueEESt10_Select1stIS4_ESt4lessISsESaIS4_EE9_M_insertEPSt18_Rb_tree_node_baseSC_RKS4_
_ZNSt8_Rb_treeISsSt4pairIKSsN7JsonBox5ValueEESt10_Select1stIS4_ESt4lessISsESaIS4_EEC1ERKS8_RKS9_
_ZNSt8_Rb_treeISsSt4pairIKSsN7JsonBox5ValueEESt10_Select1stIS4_ESt4lessISsESaIS4_EEC1ERKSA_
_ZNSt8_Rb_treeISsSt4pairIKSsN7JsonBox5ValueEESt10_Select1stIS4_ESt4lessISsESaIS4_EEaSERKSA_
_ZNSt8iteratorISt26bidirectional_iterator_tagSt4pairIKSsN7JsonBox5ValueEEiPKS5_RS6_EC2Ev
_ZNSt8iteratorISt26bidirectional_iterator_tagSt4pairIKSsN7JsonBox5ValueEEiPS5_RS5_EC2Ev
_ZSt23lexicographical_compareISt23_Rb_tree_const_iteratorISt4pairIKSsN7JsonBox5ValueEEES6_EbT_S7_T0_S8_
_ZSt4swapIPSt18_Rb_tree_node_baseEvRT_S3_
_ZSt4swapISt4lessISsEEvRT_S3_
_ZSt4swapIjEvRT_S1_
_ZSt5equalISt23_Rb_tree_const_iteratorISt4pairIKSsN7JsonBox5ValueEEES6_EbT_S7_T0_
_ZSteqIKSsN7JsonBox5ValueEEbRKSt4pairIT_T0_ES8_
_ZSteqISsN7JsonBox5ValueESt4lessISsESaISt4pairIKSsS1_EEEbRKSt3mapIT_T0_T1_T2_ESF_
_ZSteqISsSt4pairIKSsN7JsonBox5ValueEESt10_Select1stIS4_ESt4lessISsESaIS4_EEbRKSt8_Rb_treeIT_T0_T1_T2_T3_ESI_
_ZSteqIcSt11char_traitsIcESaIcEEbRKSbIT_T0_T1_ES8_
_ZStgeISsN7JsonBox5ValueESt4lessISsESaISt4pairIKSsS1_EEEbRKSt3mapIT_T0_T1_T2_ESF_
_ZStgtISsN7JsonBox5ValueESt4lessISsESaISt4pairIKSsS1_EEEbRKSt3mapIT_T0_T1_T2_ESF_
_ZStleISsN7JsonBox5ValueESt4lessISsESaISt4pairIKSsS1_EEEbRKSt3mapIT_T0_T1_T2_ESF_
_ZStltIKSsN7JsonBox5ValueEEbRKSt4pairIT_T0_ES8_
_ZStltISsN7JsonBox5ValueESt4lessISsESaISt4pairIKSsS1_EEEbRKSt3mapIT_T0_T1_T2_ESF_
_ZStltISsSt4pairIKSsN7JsonBox5ValueEESt10_Select1stIS4_ESt4lessISsESaIS4_EEbRKSt8_Rb_treeIT_T0_T1_T2_T3_ESI_
_ZStltIcSt11char_traitsIcESaIcEEbRKSbIT_T0_T1_ES8_
_ZStneISsN7JsonBox5ValueESt4lessISsESaISt4pairIKSsS1_EEEbRKSt3mapIT_T0_T1_T2_ESF_
_ZTIN7JsonBox12OutputFilterINS_8IndenterEEE
_ZTSN7JsonBox12OutputFilterINS_8IndenterEEE
_ZTVN7JsonBox12OutputFilterINS_8IndenterEEE
_ZdlPvS_
_ZnwjPv
abort
memcpy
memmove
memset
_ZGVNSt5ctypeIiE2idE
_ZGVNSt7num_getIiSt19istreambuf_iteratorIiSt11char_traitsIiEEE2idE
_ZGVNSt7num_putIiSt19ostreambuf_iteratorIiSt11char_traitsIiEEE2idE
_ZGVNSt8numpunctIiE2idE
_ZN9__gnu_cxx11char_traitsIiE11eq_int_typeERKmS3_
_ZN9__gnu_cxx11char_traitsIiE11to_int_typeERKi
_ZN9__gnu_cxx11char_traitsIiE12to_char_typeERKm
_ZN9__gnu_cxx11char_traitsIiE2eqERKiS3_
_ZN9__gnu_cxx11char_traitsIiE3eofEv
_ZN9__gnu_cxx11char_traitsIiE4copyEPiPKij
_ZN9__gnu_cxx11char_traitsIiE4moveEPiPKij
_ZN9__gnu_cxx11char_traitsIiE6assignERiRKi
_ZN9__gnu_cxx11char_traitsIiE7not_eofERKm
_ZN9__gnu_cxx13new_allocatorIcE10deallocateEPcj
_ZN9__gnu_cxx13new_allocatorIcE8allocateEjPKv
_ZN9__gnu_cxx13new_allocatorIcEC2Ev
_ZN9__gnu_cxx13new_allocatorIiEC2ERKS1_
_ZN9__gnu_cxx13new_allocatorIiEC2Ev
_ZN9__gnu_cxx13new_allocatorIiED2Ev
_ZN9__gnu_cxx17__normal_iteratorIPKcSsEC1ERKS2_
_ZN9__gnu_cxx17__normal_iteratorIPKcSsEpLERKi
_ZN9__gnu_cxx17__normal_iteratorIPKiSbIiSt11char_traitsIiESaIiEEEC1ERKS2_
_ZN9__gnu_cxx17__normal_iteratorIPKiSbIiSt11char_traitsIiESaIiEEEppEv
_ZN9__gnu_cxx17__normal_iteratorIPiSbIiSt11char_traitsIiESaIiEEEC1ERKS1_
_ZN9__gnu_cxxeqIPiSbIiSt11char_traitsIiESaIiEEEEbRKNS_17__normal_iteratorIT_T0_EESB_
_ZN9__gnu_cxxltIPKcSsEEbRKNS_17__normal_iteratorIT_T0_EES8_
_ZN9__gnu_cxxltIPKiSbIiSt11char_traitsIiESaIiEEEEbRKNS_17__normal_iteratorIT_T0_EESC_
_ZN9__gnu_cxxmiIPiSbIiSt11char_traitsIiESaIiEEEENS_17__normal_iteratorIT_T0_E15difference_typeERKS9_SC_
_ZN9__gnu_cxxneIPiSbIiSt11char_traitsIiESaIiEEEEbRKNS_17__normal_iteratorIT_T0_EESB_
_ZNK9__gnu_cxx13new_allocatorIcE8max_sizeEv
_ZNK9__gnu_cxx17__normal_iteratorIPKcSsE4baseEv
_ZNK9__gnu_cxx17__normal_iteratorIPKcSsEdeEv
_ZNK9__gnu_cxx17__normal_iteratorIPKcSsEplERKi
_ZNK9__gnu_cxx17__normal_iteratorIPKiSbIiSt11char_traitsIiESaIiEEE4baseEv
_ZNK9__gnu_cxx17__normal_iteratorIPKiSbIiSt11char_traitsIiESaIiEEEdeEv
_ZNK9__gnu_cxx17__normal_iteratorIPiSbIiSt11char_traitsIiESaIiEEE4baseEv
_ZNKSbIiSt11char_traitsIiESaIiEE11_M_disjunctEPKi
_ZNKSbIiSt11char_traitsIiESaIiEE13get_allocatorEv
_ZNKSbIiSt11char_traitsIiESaIiEE15_M_check_lengthEjjPKc
_ZNKSbIiSt11char_traitsIiESaIiEE3endEv
_ZNKSbIiSt11char_traitsIiESaIiEE4_Rep12_M_is_leakedEv
_ZNKSbIiSt11char_traitsIiESaIiEE4_Rep12_M_is_sharedEv
_ZNKSbIiSt11char_traitsIiESaIiEE4dataEv
_ZNKSbIiSt11char_traitsIiESaIiEE4sizeEv
_ZNKSbIiSt11char_traitsIiESaIiEE5beginEv
_ZNKSbIiSt11char_traitsIiESaIiEE6_M_repEv
_ZNKSbIiSt11char_traitsIiESaIiEE7_M_dataEv
_ZNKSbIiSt11char_traitsIiESaIiEE7_M_iendEv
_ZNKSbIiSt11char_traitsIiESaIiEE8capacityEv
_ZNKSbIiSt11char_traitsIiESaIiEE8max_sizeEv
_ZNKSbIiSt11char_traitsIiESaIiEE9_M_ibeginEv
_ZNKSt13basic_ostreamIiSt11char_traitsIiEE6sentrycvbEv
_ZNKSt15basic_streambufIiSt11char_traitsIiEE4gptrEv
_ZNKSt15basic_streambufIiSt11char_traitsIiEE4pptrEv
_ZNKSt15basic_streambufIiSt11char_traitsIiEE5ebackEv
_ZNKSt15basic_streambufIiSt11char_traitsIiEE5egptrEv
_ZNKSt15basic_streambufIiSt11char_traitsIiEE5epptrEv
_ZNKSt15basic_streambufIiSt11char_traitsIiEE5pbaseEv
_ZNKSt15basic_stringbufIiSt11char_traitsIiESaIiEE3strEv
_ZNKSt18basic_stringstreamIiSt11char_traitsIiESaIiEE3strEv
_ZNKSt19ostreambuf_iteratorIiSt11char_traitsIiEE6failedEv
_ZNKSt21__ctype_abstract_baseIiE5widenEc
_ZNKSt4fposI11__mbstate_tEcvxEv
_ZNKSt4lessIPKiEclERKS1_S4_
_ZNKSt7num_putIiSt19ostreambuf_iteratorIiSt11char_traitsIiEEE3putES3_RSt8ios_baseil
_ZNKSt8ios_base5flagsEv
_ZNKSt9basic_iosIiSt11char_traitsIiEE10exceptionsEv
_ZNKSt9basic_iosIiSt11char_traitsIiEE3tieEv
_ZNKSt9basic_iosIiSt11char_traitsIiEE4fillEv
_ZNKSt9basic_iosIiSt11char_traitsIiEE4goodEv
_ZNKSt9basic_iosIiSt11char_traitsIiEE5rdbufEv
_ZNKSt9basic_iosIiSt11char_traitsIiEE5widenEc
_ZNKSt9basic_iosIiSt11char_traitsIiEE7rdstateEv
_ZNSaIcEC1IiEERKSaIT_E
_ZNSaIiEC1ERKS_
_ZNSaIiEC1Ev
_ZNSaIiEC2ERKS_
_ZNSaIiED1Ev
_ZNSaIiED2Ev
_ZNSbIiSt11char_traitsIiESaIiEE12_Alloc_hiderC1EPiRKS1_
_ZNSbIiSt11char_traitsIiESaIiEE12_Alloc_hiderD1Ev
_ZNSbIiSt11char_traitsIiESaIiEE12_S_constructIN9__gnu_cxx17__normal_iteratorIPiS2_EEEES6_T_S8_RKS1_
_ZNSbIiSt11char_traitsIiESaIiEE12_S_constructIN9__gnu_cxx17__normal_iteratorIPiS2_EEEES6_T_S8_RKS1_St20forward_iterator_tag
_ZNSbIiSt11char_traitsIiESaIiEE12_S_constructIPiEES4_T_S5_RKS1_
_ZNSbIiSt11char_traitsIiESaIiEE12_S_constructIPiEES4_T_S5_RKS1_St20forward_iterator_tag
_ZNSbIiSt11char_traitsIiESaIiEE12_S_empty_repEv
_ZNSbIiSt11char_traitsIiESaIiEE13_S_copy_charsEPiN9__gnu_cxx17__normal_iteratorIS3_S2_EES6_
_ZNSbIiSt11char_traitsIiESaIiEE13_S_copy_charsEPiS3_S3_
_ZNSbIiSt11char_traitsIiESaIiEE15_M_replace_safeEjjPKij
_ZNSbIiSt11char_traitsIiESaIiEE16_S_construct_auxIN9__gnu_cxx17__normal_iteratorIPiS2_EEEES6_T_S8_RKS1_St12__false_type
_ZNSbIiSt11char_traitsIiESaIiEE16_S_construct_auxIPiEES4_T_S5_RKS1_St12__false_type
_ZNSbIiSt11char_traitsIiESaIiEE4_Rep10_M_destroyERKS1_
_ZNSbIiSt11char_traitsIiESaIiEE4_Rep10_M_disposeERKS1_
_ZNSbIiSt11char_traitsIiESaIiEE4_Rep10_M_refcopyEv
_ZNSbIiSt11char_traitsIiESaIiEE4_Rep10_M_refdataEv
_ZNSbIiSt11char_traitsIiESaIiEE4_Rep11_S_terminalE
_ZNSbIiSt11char_traitsIiESaIiEE4_Rep12_S_empty_repEv
_ZNSbIiSt11char_traitsIiESaIiEE4_Rep15_M_set_sharableEv
_ZNSbIiSt11char_traitsIiESaIiEE4_Rep20_S_empty_rep_storageE
_ZNSbIiSt11char_traitsIiESaIiEE4_Rep26_M_set_length_and_sharableEj
_ZNSbIiSt11char_traitsIiESaIiEE4_Rep7_M_grabERKS1_S5_
_ZNSbIiSt11char_traitsIiESaIiEE4_Rep8_M_cloneERKS1_j
_ZNSbIiSt11char_traitsIiESaIiEE4_Rep9_S_createEjjRKS1_
_ZNSbIiSt11char_traitsIiESaIiEE4swapERS2_
_ZNSbIiSt11char_traitsIiESaIiEE5clearEv
_ZNSbIiSt11char_traitsIiESaIiEE6assignEPKij
_ZNSbIiSt11char_traitsIiESaIiEE6assignERKS2_
_ZNSbIiSt11char_traitsIiESaIiEE7_M_copyEPiPKij
_ZNSbIiSt11char_traitsIiESaIiEE7_M_dataEPi
_ZNSbIiSt11char_traitsIiESaIiEE7_M_moveEPiPKij
_ZNSbIiSt11char_traitsIiESaIiEE7reserveEj
_ZNSbIiSt11char_traitsIiESaIiEE9_M_mutateEjjj
_ZNSbIiSt11char_traitsIiESaIiEE9push_backEi
_ZNSbIiSt11char_traitsIiESaIiEEC1Ev
_ZNSbIiSt11char_traitsIiESaIiEEC1IN9__gnu_cxx17__normal_iteratorIPiS2_EEEET_S8_RKS1_
_ZNSbIiSt11char_traitsIiESaIiEEC1IPiEET_S5_RKS1_
_ZNSbIiSt11char_traitsIiESaIiEED1Ev
_ZNSbIiSt11char_traitsIiESaIiEEaSERKS2_
_ZNSt13__copy_normalILb0ELb0EE8__copy_nIPKiPiEET0_T_S6_S5_
_ZNSt13basic_istreamIiSt11char_traitsIiEEC2Ev
_ZNSt13basic_istreamIiSt11char_traitsIiEED0Ev
_ZNSt13basic_istreamIiSt11char_traitsIiEED1Ev
_ZNSt13basic_istreamIiSt11char_traitsIiEED2Ev
_ZNSt13basic_ostreamIiSt11char_traitsIiEE5flushEv
_ZNSt13basic_ostreamIiSt11char_traitsIiEE6sentryC1ERS2_
_ZNSt13basic_ostreamIiSt11char_traitsIiEE6sentryD1Ev
_ZNSt13basic_ostreamIiSt11char_traitsIiEE9_M_insertIlEERS2_T_
_ZNSt13basic_ostreamIiSt11char_traitsIiEEC2Ev
_ZNSt13basic_ostreamIiSt11char_traitsIiEED0Ev
_ZNSt13basic_ostreamIiSt11char_traitsIiEED1Ev
_ZNSt13basic_ostreamIiSt11char_traitsIiEED2Ev
_ZNSt13basic_ostreamIiSt11char_traitsIiEElsEi
_ZNSt14basic_iostreamIiSt11char_traitsIiEEC2Ev
_ZNSt14basic_iostreamIiSt11char_traitsIiEED0Ev
_ZNSt14basic_iostreamIiSt11char_traitsIiEED1Ev
_ZNSt14basic_iostreamIiSt11char_traitsIiEED2Ev
_ZNSt15basic_streambufIiSt11char_traitsIiEE4setgEPiS3_S3_
_ZNSt15basic_streambufIiSt11char_traitsIiEE4setpEPiS3_
_ZNSt15basic_streambufIiSt11char_traitsIiEE4syncEv
_ZNSt15basic_streambufIiSt11char_traitsIiEE5gbumpEi
_ZNSt15basic_streambufIiSt11char_traitsIiEE5imbueERKSt6locale
_ZNSt15basic_streambufIiSt11char_traitsIiEE5pbumpEi
_ZNSt15basic_streambufIiSt11char_traitsIiEE5uflowEv
_ZNSt15basic_streambufIiSt11char_traitsIiEE6setbufEPii
_ZNSt15basic_streambufIiSt11char_traitsIiEE6xsgetnEPii
_ZNSt15basic_streambufIiSt11char_traitsIiEE6xsputnEPKii
_ZNSt15basic_streambufIiSt11char_traitsIiEE7pubsyncEv
_ZNSt15basic_streambufIiSt11char_traitsIiEE7seekoffExSt12_Ios_SeekdirSt13_Ios_Openmode
_ZNSt15basic_streambufIiSt11char_traitsIiEE7seekposESt4fposI11__mbstate_tESt13_Ios_Openmode
_ZNSt15basic_streambufIiSt11char_traitsIiEE8overflowEm
_ZNSt15basic_streambufIiSt11char_traitsIiEE9pbackfailEm
_ZNSt15basic_streambufIiSt11char_traitsIiEE9showmanycEv
_ZNSt15basic_streambufIiSt11char_traitsIiEE9underflowEv
_ZNSt15basic_streambufIiSt11char_traitsIiEEC2Ev
_ZNSt15basic_streambufIiSt11char_traitsIiEED0Ev
_ZNSt15basic_streambufIiSt11char_traitsIiEED1Ev
_ZNSt15basic_streambufIiSt11char_traitsIiEED2Ev
_ZNSt15basic_stringbufIiSt11char_traitsIiESaIiEE15_M_update_egptrEv
_ZNSt15basic_stringbufIiSt11char_traitsIiESaIiEE6setbufEPii
_ZNSt15basic_stringbufIiSt11char_traitsIiESaIiEE7_M_syncEPijj
_ZNSt15basic_stringbufIiSt11char_traitsIiESaIiEE7seekoffExSt12_Ios_SeekdirSt13_Ios_Openmode
_ZNSt15basic_stringbufIiSt11char_traitsIiESaIiEE7seekposESt4fposI11__mbstate_tESt13_Ios_Openmode
_ZNSt15basic_stringbufIiSt11char_traitsIiESaIiEE8overflowEm
_ZNSt15basic_stringbufIiSt11char_traitsIiESaIiEE9pbackfailEm
_ZNSt15basic_stringbufIiSt11char_traitsIiESaIiEE9showmanycEv
_ZNSt15basic_stringbufIiSt11char_traitsIiESaIiEE9underflowEv
_ZNSt15basic_stringbufIiSt11char_traitsIiESaIiEEC1ESt13_Ios_Openmode
_ZNSt15basic_stringbufIiSt11char_traitsIiESaIiEED0Ev
_ZNSt15basic_stringbufIiSt11char_traitsIiESaIiEED1Ev
_ZNSt15binary_functionIPKiS1_bEC2Ev
_ZNSt18basic_stringstreamIiSt11char_traitsIiESaIiEEC1ESt13_Ios_Openmode
_ZNSt18basic_stringstreamIiSt11char_traitsIiESaIiEED0Ev
_ZNSt18basic_stringstreamIiSt11char_traitsIiESaIiEED1Ev
_ZNSt18input_iterator_tagC2Ev
_ZNSt19ostreambuf_iteratorIiSt11char_traitsIiEEC1ERSt13basic_ostreamIiS1_E
_ZNSt20forward_iterator_tagC2Ev
_ZNSt26bidirectional_iterator_tagC2Ev
_ZNSt26random_access_iterator_tagC1Ev
_ZNSt4fposI11__mbstate_tEC1Ex
_ZNSt4lessIPKiEC1Ev
_ZNSt5ctypeIiE2idE
_ZNSt6__copyILb1ESt26random_access_iterator_tagE4copyIiEEPT_PKS3_S6_S4_
_ZNSt6locale2idC1Ev
_ZNSt7num_getIiSt19istreambuf_iteratorIiSt11char_traitsIiEEE2idE
_ZNSt7num_putIiSt19ostreambuf_iteratorIiSt11char_traitsIiEEE2idE
_ZNSt8iteratorISt19output_iterator_tagvvvvEC2Ev
_ZNSt8numpunctIiE2idE
_ZNSt9basic_iosIiSt11char_traitsIiEE11_M_setstateESt12_Ios_Iostate
_ZNSt9basic_iosIiSt11char_traitsIiEE15_M_cache_localeERKSt6locale
_ZNSt9basic_iosIiSt11char_traitsIiEE4initEPSt15basic_streambufIiS1_E
_ZNSt9basic_iosIiSt11char_traitsIiEE5clearESt12_Ios_Iostate
_ZNSt9basic_iosIiSt11char_traitsIiEE8setstateESt12_Ios_Iostate
_ZNSt9basic_iosIiSt11char_traitsIiEEC2Ev
_ZNSt9basic_iosIiSt11char_traitsIiEED0Ev
_ZNSt9basic_iosIiSt11char_traitsIiEED1Ev
_ZNSt9basic_iosIiSt11char_traitsIiEED2Ev
_ZSt10__copy_auxIPKiPiET0_T_S4_S3_
_ZSt10__distanceIN9__gnu_cxx17__normal_iteratorIPiSbIiSt11char_traitsIiESaIiEEEEENSt15iterator_traitsIT_E15difference_typeES9_S9_St26random_access_iterator_tag
_ZSt10__distanceIPiENSt15iterator_traitsIT_E15difference_typeES2_S2_St26random_access_iterator_tag
_ZSt13__check_facetISt5ctypeIiEERKT_PS3_
_ZSt13__check_facetISt7num_putIiSt19ostreambuf_iteratorIiSt11char_traitsIiEEEERKT_PS7_
_ZSt17__is_null_pointerIN9__gnu_cxx17__normal_iteratorIPiSbIiSt11char_traitsIiESaIiEEEEEbT_
_ZSt17__is_null_pointerIiEbPT_
_ZSt19__iterator_categoryIN9__gnu_cxx17__normal_iteratorIPiSbIiSt11char_traitsIiESaIiEEEEENSt15iterator_traitsIT_E17iterator_categoryERKS9_
_ZSt19__iterator_categoryIPiENSt15iterator_traitsIT_E17iterator_categoryERKS2_
_ZSt3maxIjERKT_S2_S2_
_ZSt3minIiERKT_S2_S2_
_ZSt3minIjERKT_S2_S2_
_ZSt4copyIPKiPiET0_T_S4_S3_
_ZSt8distanceIN9__gnu_cxx17__normal_iteratorIPiSbIiSt11char_traitsIiESaIiEEEEENSt15iterator_traitsIT_E15difference_typeES9_S9_
_ZSt8distanceIPiENSt15iterator_traitsIT_E15difference_typeES2_S2_
_ZSt9has_facetISt5ctypeIiEEbRKSt6locale
_ZSt9has_facetISt7num_getIiSt19istreambuf_iteratorIiSt11char_traitsIiEEEEbRKSt6locale
_ZSt9has_facetISt7num_putIiSt19ostreambuf_iteratorIiSt11char_traitsIiEEEEbRKSt6locale
_ZSt9use_facetISt5ctypeIiEERKT_RKSt6locale
_ZSt9use_facetISt7num_getIiSt19istreambuf_iteratorIiSt11char_traitsIiEEEERKT_RKSt6locale
_ZSt9use_facetISt7num_putIiSt19ostreambuf_iteratorIiSt11char_traitsIiEEEERKT_RKSt6locale
_ZStanSt12_Ios_IostateS_
_ZStanSt13_Ios_FmtflagsS_
_ZStanSt13_Ios_OpenmodeS_
_ZSteqIiiEbRKSaIT_ERKSaIT0_E
_ZStoRRSt12_Ios_IostateS_
_ZStorSt12_Ios_IostateS_
_ZStorSt13_Ios_OpenmodeS_
_ZTCSt14basic_iostreamIiSt11char_traitsIiEE0_St13basic_istreamIiS1_E
_ZTCSt14basic_iostreamIiSt11char_traitsIiEE8_St13basic_ostreamIiS1_E
_ZTCSt18basic_stringstreamIiSt11char_traitsIiESaIiEE0_St13basic_istreamIiS1_E
_ZTCSt18basic_stringstreamIiSt11char_traitsIiESaIiEE0_St14basic_iostreamIiS1_E
_ZTCSt18basic_stringstreamIiSt11char_traitsIiESaIiEE8_St13basic_ostreamIiS1_E
_ZTISt13basic_istreamIiSt11char_traitsIiEE
_ZTISt13basic_ostreamIiSt11char_traitsIiEE
_ZTISt14basic_iostreamIiSt11char_traitsIiEE
_ZTISt15basic_streambufIiSt11char_traitsIiEE
_ZTISt15basic_stringbufIiSt11char_traitsIiESaIiEE
_ZTISt18basic_stringstreamIiSt11char_traitsIiESaIiEE
_ZTISt9basic_iosIiSt11char_traitsIiEE
_ZTSSt13basic_istreamIiSt11char_traitsIiEE
_ZTSSt13basic_ostreamIiSt11char_traitsIiEE
_ZTSSt14basic_iostreamIiSt11char_traitsIiEE
_ZTSSt15basic_streambufIiSt11char_traitsIiEE
_ZTSSt15basic_stringbufIiSt11char_traitsIiESaIiEE
_ZTSSt18basic_stringstreamIiSt11char_traitsIiESaIiEE
_ZTSSt9basic_iosIiSt11char_traitsIiEE
_ZTTSt13basic_istreamIiSt11char_traitsIiEE
_ZTTSt13basic_ostreamIiSt11char_traitsIiEE
_ZTTSt14basic_iostreamIiSt11char_traitsIiEE
_ZTTSt18basic_stringstreamIiSt11char_traitsIiESaIiEE
_ZTVSt13basic_istreamIiSt11char_traitsIiEE
_ZTVSt13basic_ostreamIiSt11char_traitsIiEE
_ZTVSt14basic_iostreamIiSt11char_traitsIiEE
_ZTVSt15basic_streambufIiSt11char_traitsIiEE
_ZTVSt15basic_stringbufIiSt11char_traitsIiESaIiEE
_ZTVSt18basic_stringstreamIiSt11char_traitsIiESaIiEE
_ZTVSt9basic_iosIiSt11char_traitsIiEE
_ZThn8_NSt14basic_iostreamIiSt11char_traitsIiEED0Ev
_ZThn8_NSt14basic_iostreamIiSt11char_traitsIiEED1Ev
_ZThn8_NSt18basic_stringstreamIiSt11char_traitsIiESaIiEED0Ev
_ZThn8_NSt18basic_stringstreamIiSt11char_traitsIiESaIiEED1Ev
_ZTv0_n12_NSt13basic_istreamIiSt11char_traitsIiEED0Ev
_ZTv0_n12_NSt13basic_istreamIiSt11char_traitsIiEED1Ev
_ZTv0_n12_NSt13basic_ostreamIiSt11char_traitsIiEED0Ev
_ZTv0_n12_NSt13basic_ostreamIiSt11char_traitsIiEED1Ev
_ZTv0_n12_NSt14basic_iostreamIiSt11char_traitsIiEED0Ev
_ZTv0_n12_NSt14basic_iostreamIiSt11char_traitsIiEED1Ev
_ZTv0_n12_NSt18basic_stringstreamIiSt11char_traitsIiESaIiEED0Ev
_ZTv0_n12_NSt18basic_stringstreamIiSt11char_traitsIiESaIiEED1Ev
_ZnwjPv
abort
memcpy
memmove
memset
_ZNSt11char_traitsIcE12to_char_typeERKi
abort
memcpy
memmove
memset
_ZN7JsonBox12OutputFilterINS_8IndenterEE4syncEv
_ZN7JsonBox12OutputFilterINS_8IndenterEE6setbufEPci
_ZN7JsonBox12OutputFilterINS_8IndenterEE8overflowEi
_ZN7JsonBox12OutputFilterINS_8IndenterEE9underflowEv
_ZN7JsonBox12OutputFilterINS_8IndenterEEC1EPSt15basic_streambufIcSt11char_traitsIcEEb
_ZN7JsonBox12OutputFilterINS_8IndenterEED0Ev
_ZN7JsonBox12OutputFilterINS_8IndenterEED1Ev
_ZN9__gnu_cxx13new_allocatorIN7JsonBox5ValueEE10deallocateEPS2_j
_ZN9__gnu_cxx13new_allocatorIN7JsonBox5ValueEE7destroyEPS2_
_ZN9__gnu_cxx13new_allocatorIN7JsonBox5ValueEE8allocateEjPKv
_ZN9__gnu_cxx13new_allocatorIN7JsonBox5ValueEE9constructEPS2_RKS2_
_ZN9__gnu_cxx13new_allocatorIN7JsonBox5ValueEEC2ERKS3_
_ZN9__gnu_cxx13new_allocatorIN7JsonBox5ValueEED2Ev
_ZN9__gnu_cxx17__normal_iteratorIPKN7JsonBox5ValueESt6vectorIS2_SaIS2_EEEC1ERKS4_
_ZN9__gnu_cxx17__normal_iteratorIPKN7JsonBox5ValueESt6vectorIS2_SaIS2_EEEppEv
_ZN9__gnu_cxx17__normal_iteratorIPN7JsonBox5ValueESt6vectorIS2_SaIS2_EEEC1ERKS3_
_ZN9__gnu_cxx17__normal_iteratorIPN7JsonBox5ValueESt6vectorIS2_SaIS2_EEEppEv
_ZN9__gnu_cxxeqIPKN7JsonBox5ValueESt6vectorIS2_SaIS2_EEEEbRKNS_17__normal_iteratorIT_T0_EESD_
_ZN9__gnu_cxxeqIPN7JsonBox5ValueESt6vectorIS2_SaIS2_EEEEbRKNS_17__normal_iteratorIT_T0_EESC_
_ZN9__gnu_cxxmiIPN7JsonBox5ValueESt6vectorIS2_SaIS2_EEEENS_17__normal_iteratorIT_T0_E15difference_typeERKSA_SD_
_ZN9__gnu_cxxneIPKN7JsonBox5ValueESt6vectorIS2_SaIS2_EEEEbRKNS_17__normal_iteratorIT_T0_EESD_
_ZN9__gnu_cxxneIPN7JsonBox5ValueESt6vectorIS2_SaIS2_EEEEbRKNS_17__normal_iteratorIT_T0_EESC_
_ZNK7JsonBox12OutputFilterINS_8IndenterEE14getDestinationEv
_ZNK9__gnu_cxx13new_allocatorIN7JsonBox5ValueEE8max_sizeEv
_ZNK9__gnu_cxx17__normal_iteratorIPKN7JsonBox5ValueESt6vectorIS2_SaIS2_EEE4baseEv
_ZNK9__gnu_cxx17__normal_iteratorIPKN7JsonBox5ValueESt6vectorIS2_SaIS2_EEEdeEv
_ZNK9__gnu_cxx17__normal_iteratorIPKN7JsonBox5ValueESt6vectorIS2_SaIS2_EEEmiERKi
_ZNK9__gnu_cxx17__normal_iteratorIPN7JsonBox5ValueESt6vectorIS2_SaIS2_EEE4baseEv
_ZNK9__gnu_cxx17__normal_iteratorIPN7JsonBox5ValueESt6vectorIS2_SaIS2_EEEdeEv
_ZNK9__gnu_cxx17__normal_iteratorIPN7JsonBox5ValueESt6vectorIS2_SaIS2_EEEmiERKi
_ZNK9__gnu_cxx17__normal_iteratorIPN7JsonBox5ValueESt6vectorIS2_SaIS2_EEEplERKi
_ZNKSt12_Vector_baseIN7JsonBox5ValueESaIS1_EE13get_allocatorEv
_ZNKSt12_Vector_baseIN7JsonBox5ValueESaIS1_EE19_M_get_Tp_allocatorEv
_ZNKSt6vectorIN7JsonBox5ValueESaIS1_EE14_M_range_checkEj
_ZNKSt6vectorIN7JsonBox5ValueESaIS1_EE2atEj
_ZNKSt6vectorIN7JsonBox5ValueESaIS1_EE3endEv
_ZNKSt6vectorIN7JsonBox5ValueESaIS1_EE4backEv
_ZNKSt6vectorIN7JsonBox5ValueESaIS1_EE4rendEv
_ZNKSt6vectorIN7JsonBox5ValueESaIS1_EE4sizeEv
_ZNKSt6vectorIN7JsonBox5ValueESaIS1_EE5beginEv
_ZNKSt6vectorIN7JsonBox5ValueESaIS1_EE5emptyEv
_ZNKSt6vectorIN7JsonBox5ValueESaIS1_EE5frontEv
_ZNKSt6vectorIN7JsonBox5ValueESaIS1_EE6rbeginEv
_ZNKSt6vectorIN7JsonBox5ValueESaIS1_EE8capacityEv
_ZNKSt6vectorIN7JsonBox5ValueESaIS1_EE8max_sizeEv
_ZNKSt6vectorIN7JsonBox5ValueESaIS1_EEixEj
_ZNSaIN7JsonBox5ValueEEC1ERKS1_
_ZNSaIN7JsonBox5ValueEEC2ERKS1_
_ZNSaIN7JsonBox5ValueEED1Ev
_ZNSaIN7JsonBox5ValueEED2Ev
_ZNSt11char_traitsIcE3eofEv
_ZNSt12_Vector_baseIN7JsonBox5ValueESaIS1_EE11_M_allocateEj
_ZNSt12_Vector_baseIN7JsonBox5ValueESaIS1_EE12_Vector_implC1ERKS2_
_ZNSt12_Vector_baseIN7JsonBox5ValueESaIS1_EE12_Vector_implD1Ev
_ZNSt12_Vector_baseIN7JsonBox5ValueESaIS1_EE13_M_deallocateEPS1_j
_ZNSt12_Vector_baseIN7JsonBox5ValueESaIS1_EE19_M_get_Tp_allocatorEv
_ZNSt12_Vector_baseIN7JsonBox5ValueESaIS1_EEC2ERKS2_
_ZNSt12_Vector_baseIN7JsonBox5ValueESaIS1_EEC2EjRKS2_
_ZNSt12_Vector_baseIN7JsonBox5ValueESaIS1_EED2Ev
_ZNSt12__alloc_swapISaIN7JsonBox5ValueEELb1EE8_S_do_itERS2_S4_
_ZNSt13__copy_normalILb0ELb0EE8__copy_nIPN7JsonBox5ValueES4_EET0_T_S6_S5_
_ZNSt13__copy_normalILb1ELb1EE8__copy_nIN9__gnu_cxx17__normal_iteratorIPKN7JsonBox5ValueESt6vectorIS5_SaIS5_EEEENS3_IPS5_SA_EEEET0_T_SF_SE_
_ZNSt13__copy_normalILb1ELb1EE8__copy_nIN9__gnu_cxx17__normal_iteratorIPN7JsonBox5ValueESt6vectorIS5_SaIS5_EEEESA_EET0_T_SC_SB_
_ZNSt14numeric_limitsIhE3maxEv
_ZNSt15__copy_backwardILb0ESt26random_access_iterator_tagE8__copy_bIPN7JsonBox5ValueES5_EET0_T_S7_S6_
_ZNSt16reverse_iteratorIN9__gnu_cxx17__normal_iteratorIPKN7JsonBox5ValueESt6vectorIS3_SaIS3_EEEEEC1ES9_
_ZNSt16reverse_iteratorIN9__gnu_cxx17__normal_iteratorIPN7JsonBox5ValueESt6vectorIS3_SaIS3_EEEEEC1ES8_
_ZNSt22__copy_backward_normalILb0ELb0EE10__copy_b_nIPN7JsonBox5ValueES4_EET0_T_S6_S5_
_ZNSt6__copyILb0ESt26random_access_iterator_tagE4copyIPKN7JsonBox5ValueEPS4_EET0_T_S9_S8_
_ZNSt6__copyILb0ESt26random_access_iterator_tagE4copyIPN7JsonBox5ValueES5_EET0_T_S7_S6_
_ZNSt6__fillILb0EE4fillIN9__gnu_cxx17__normal_iteratorIPN7JsonBox5ValueESt6vectorIS5_SaIS5_EEEES5_EEvT_SB_RKT0_
_ZNSt6__fillILb0EE4fillIPN7JsonBox5ValueES3_EEvT_S5_RKT0_
_ZNSt6vectorIN7JsonBox5ValueESaIS1_EE13_M_insert_auxEN9__gnu_cxx17__normal_iteratorIPS1_S3_EERKS1_
_ZNSt6vectorIN7JsonBox5ValueESaIS1_EE14_M_fill_assignEjRKS1_
_ZNSt6vectorIN7JsonBox5ValueESaIS1_EE14_M_fill_insertEN9__gnu_cxx17__normal_iteratorIPS1_S3_EEjRKS1_
_ZNSt6vectorIN7JsonBox5ValueESaIS1_EE15_M_erase_at_endEPS1_
_ZNSt6vectorIN7JsonBox5ValueESaIS1_EE20_M_allocate_and_copyIN9__gnu_cxx17__normal_iteratorIPKS1_S3_EEEEPS1_jT_SB_
_ZNSt6vectorIN7JsonBox5ValueESaIS1_EE20_M_allocate_and_copyIPS1_EES5_jT_S6_
_ZNSt6vectorIN7JsonBox5ValueESaIS1_EE2atEj
_ZNSt6vectorIN7JsonBox5ValueESaIS1_EE3endEv
_ZNSt6vectorIN7JsonBox5ValueESaIS1_EE4backEv
_ZNSt6vectorIN7JsonBox5ValueESaIS1_EE4rendEv
_ZNSt6vectorIN7JsonBox5ValueESaIS1_EE4swapERS3_
_ZNSt6vectorIN7JsonBox5ValueESaIS1_EE5beginEv
_ZNSt6vectorIN7JsonBox5ValueESaIS1_EE5clearEv
_ZNSt6vectorIN7JsonBox5ValueESaIS1_EE5eraseEN9__gnu_cxx17__normal_iteratorIPS1_S3_EE
_ZNSt6vectorIN7JsonBox5ValueESaIS1_EE5eraseEN9__gnu_cxx17__normal_iteratorIPS1_S3_EES7_
_ZNSt6vectorIN7JsonBox5ValueESaIS1_EE5frontEv
_ZNSt6vectorIN7JsonBox5ValueESaIS1_EE6assignEjRKS1_
_ZNSt6vectorIN7JsonBox5ValueESaIS1_EE6insertEN9__gnu_cxx17__normal_iteratorIPS1_S3_EERKS1_
_ZNSt6vectorIN7JsonBox5ValueESaIS1_EE6insertEN9__gnu_cxx17__normal_iteratorIPS1_S3_EEjRKS1_
_ZNSt6vectorIN7JsonBox5ValueESaIS1_EE6rbeginEv
_ZNSt6vectorIN7JsonBox5ValueESaIS1_EE6resizeEjS1_
_ZNSt6vectorIN7JsonBox5ValueESaIS1_EE7reserveEj
_ZNSt6vectorIN7JsonBox5ValueESaIS1_EE8pop_backEv
_ZNSt6vectorIN7JsonBox5ValueESaIS1_EE9push_backERKS1_
_ZNSt6vectorIN7JsonBox5ValueESaIS1_EEC1ERKS2_
_ZNSt6vectorIN7JsonBox5ValueESaIS1_EEC1ERKS3_
_ZNSt6vectorIN7JsonBox5ValueESaIS1_EEC1EjRKS1_RKS2_
_ZNSt6vectorIN7JsonBox5ValueESaIS1_EED1Ev
_ZNSt6vectorIN7JsonBox5ValueESaIS1_EEaSERKS3_
_ZNSt6vectorIN7JsonBox5ValueESaIS1_EEixEj
_ZNSt8__fill_nILb0EE6fill_nIPN7JsonBox5ValueEjS3_EET_S5_T0_RKT1_
_ZNSt8iteratorISt26random_access_iterator_tagN7JsonBox5ValueEiPKS2_RS3_EC2Ev
_ZNSt8iteratorISt26random_access_iterator_tagN7JsonBox5ValueEiPS2_RS2_EC2Ev
_ZSt10_ConstructIN7JsonBox5ValueES1_EvPT_RKT0_
_ZSt10__copy_auxIPKN7JsonBox5ValueEPS1_ET0_T_S6_S5_
_ZSt10__copy_auxIPN7JsonBox5ValueES2_ET0_T_S4_S3_
_ZSt13__destroy_auxIN9__gnu_cxx17__normal_iteratorIPN7JsonBox5ValueESt6vectorIS3_SaIS3_EEEEEvT_S9_St12__false_type
_ZSt13__destroy_auxIPN7JsonBox5ValueEEvT_S3_St12__false_type
_ZSt13copy_backwardIPN7JsonBox5ValueES2_ET0_T_S4_S3_
_ZSt18uninitialized_copyIN9__gnu_cxx17__normal_iteratorIPKN7JsonBox5ValueESt6vectorIS3_SaIS3_EEEEPS3_ET0_T_SC_SB_
_ZSt18uninitialized_copyIPN7JsonBox5ValueES2_ET0_T_S4_S3_
_ZSt19__copy_backward_auxIPN7JsonBox5ValueES2_ET0_T_S4_S3_
_ZSt20uninitialized_fill_nIPN7JsonBox5ValueEjS1_EvT_T0_RKT1_
_ZSt22__uninitialized_copy_aIN9__gnu_cxx17__normal_iteratorIPKN7JsonBox5ValueESt6vectorIS3_SaIS3_EEEEPS3_S3_ET0_T_SC_SB_SaIT1_E
_ZSt22__uninitialized_copy_aIPN7JsonBox5ValueES2_S1_ET0_T_S4_S3_SaIT1_E
_ZSt23lexicographical_compareIN9__gnu_cxx17__normal_iteratorIPKN7JsonBox5ValueESt6vectorIS3_SaIS3_EEEES9_EbT_SA_T0_SB_
_ZSt24__uninitialized_copy_auxIN9__gnu_cxx17__normal_iteratorIPKN7JsonBox5ValueESt6vectorIS3_SaIS3_EEEEPS3_ET0_T_SC_SB_St12__false_type
_ZSt24__uninitialized_copy_auxIPN7JsonBox5ValueES2_ET0_T_S4_S3_St12__false_type
_ZSt24__uninitialized_fill_n_aIPN7JsonBox5ValueEjS1_S1_EvT_T0_RKT1_SaIT2_E
_ZSt26__uninitialized_fill_n_auxIPN7JsonBox5ValueEjS1_EvT_T0_RKT1_St12__false_type
_ZSt3maxIjERKT_S2_S2_
_ZSt4copyIN9__gnu_cxx17__normal_iteratorIPKN7JsonBox5ValueESt6vectorIS3_SaIS3_EEEENS1_IPS3_S8_EEET0_T_SD_SC_
_ZSt4copyIN9__gnu_cxx17__normal_iteratorIPN7JsonBox5ValueESt6vectorIS3_SaIS3_EEEES8_ET0_T_SA_S9_
_ZSt4copyIPN7JsonBox5ValueES2_ET0_T_S4_S3_
_ZSt4fillIN9__gnu_cxx17__normal_iteratorIPN7JsonBox5ValueESt6vectorIS3_SaIS3_EEEES3_EvT_S9_RKT0_
_ZSt4fillIPN7JsonBox5ValueES1_EvT_S3_RKT0_
_ZSt4swapIPN7JsonBox5ValueEEvRT_S4_
_ZSt5equalIN9__gnu_cxx17__normal_iteratorIPKN7JsonBox5ValueESt6vectorIS3_SaIS3_EEEES9_EbT_SA_T0_
_ZSt6fill_nIPN7JsonBox5ValueEjS1_ET_S3_T0_RKT1_
_ZSt8_DestroyIN7JsonBox5ValueEEvPT_
_ZSt8_DestroyIN9__gnu_cxx17__normal_iteratorIPN7JsonBox5ValueESt6vectorIS3_SaIS3_EEEEEvT_S9_
_ZSt8_DestroyIN9__gnu_cxx17__normal_iteratorIPN7JsonBox5ValueESt6vectorIS3_SaIS3_EEEES3_EvT_S9_SaIT0_E
_ZSt8_DestroyIPN7JsonBox5ValueEEvT_S3_
_ZSt8_DestroyIPN7JsonBox5ValueES1_EvT_S3_SaIT0_E
_ZSteqIN7JsonBox5ValueESaIS1_EEbRKSt6vectorIT_T0_ES8_
_ZStgeIN7JsonBox5ValueESaIS1_EEbRKSt6vectorIT_T0_ES8_
_ZStgtIN7JsonBox5ValueESaIS1_EEbRKSt6vectorIT_T0_ES8_
_ZStleIN7JsonBox5ValueESaIS1_EEbRKSt6vectorIT_T0_ES8_
_ZStltIN7JsonBox5ValueESaIS1_EEbRKSt6vectorIT_T0_ES8_
_ZStneIN7JsonBox5ValueESaIS1_EEbRKSt6vectorIT_T0_ES8_
_ZTIN7JsonBox12OutputFilterINS_8IndenterEEE
_ZTSN7JsonBox12OutputFilterINS_8IndenterEEE
_ZTVN7JsonBox12OutputFilterINS_8IndenterEEE
_ZdlPvS_
_ZnwjPv
abort
memcpy
memmove
memset
_ZNSt11char_traitsIcE12to_char_typeERKi
abort
memcpy
memmove
memset
_ZN7JsonBox12OutputFilterINS_14SolidusEscaperEE4syncEv
_ZN7JsonBox12OutputFilterINS_14SolidusEscaperEE6setbufEPci
_ZN7JsonBox12OutputFilterINS_14SolidusEscaperEE8overflowEi
_ZN7JsonBox12OutputFilterINS_14SolidusEscaperEE9underflowEv
_ZN7JsonBox12OutputFilterINS_14SolidusEscaperEEC1EPSt15basic_streambufIcSt11char_traitsIcEEb
_ZN7JsonBox12OutputFilterINS_14SolidusEscaperEED0Ev
_ZN7JsonBox12OutputFilterINS_14SolidusEscaperEED1Ev
_ZN7JsonBox12OutputFilterINS_15IndentCancellerEE4syncEv
_ZN7JsonBox12OutputFilterINS_15IndentCancellerEE6setbufEPci
_ZN7JsonBox12OutputFilterINS_15IndentCancellerEE8overflowEi
_ZN7JsonBox12OutputFilterINS_15IndentCancellerEE9underflowEv
_ZN7JsonBox12OutputFilterINS_15IndentCancellerEEC1EPSt15basic_streambufIcSt11char_traitsIcEEb
_ZN7JsonBox12OutputFilterINS_15IndentCancellerEED0Ev
_ZN7JsonBox12OutputFilterINS_15IndentCancellerEED1Ev
_ZN7JsonBox5ArrayD1Ev
_ZN7JsonBox6ObjectD1Ev
_ZN9__gnu_cxx11char_traitsIiE4copyEPiPKij
_ZN9__gnu_cxx11char_traitsIiE4moveEPiPKij
_ZN9__gnu_cxx11char_traitsIiE6assignERiRKi
_ZN9__gnu_cxx13new_allocatorIN7JsonBox5ValueEE10deallocateEPS2_j
_ZN9__gnu_cxx13new_allocatorIN7JsonBox5ValueEEC2ERKS3_
_ZN9__gnu_cxx13new_allocatorIN7JsonBox5ValueEEC2Ev
_ZN9__gnu_cxx13new_allocatorIN7JsonBox5ValueEED2Ev
_ZN9__gnu_cxx13new_allocatorISt13_Rb_tree_nodeISt4pairIKSsN7JsonBox5ValueEEEE10deallocateEPS7_j
_ZN9__gnu_cxx13new_allocatorISt13_Rb_tree_nodeISt4pairIKSsN7JsonBox5ValueEEEED2Ev
_ZN9__gnu_cxx13new_allocatorISt4pairIKSsN7JsonBox5ValueEEE7destroyEPS5_
_ZN9__gnu_cxx13new_allocatorISt4pairIKSsN7JsonBox5ValueEEEC2Ev
_ZN9__gnu_cxx13new_allocatorISt4pairIKSsN7JsonBox5ValueEEED2Ev
_ZN9__gnu_cxx13new_allocatorIcE10deallocateEPcj
_ZN9__gnu_cxx13new_allocatorIcE8allocateEjPKv
_ZN9__gnu_cxx13new_allocatorIcEC2Ev
_ZN9__gnu_cxx13new_allocatorIiEC2ERKS1_
_ZN9__gnu_cxx13new_allocatorIiEC2Ev
_ZN9__gnu_cxx13new_allocatorIiED2Ev
_ZN9__gnu_cxx17__normal_iteratorIPKcSsEppEv
_ZN9__gnu_cxxneIPKcSsEEbRKNS_17__normal_iteratorIT_T0_EES8_
_ZNK7JsonBox12OutputFilterINS_14SolidusEscaperEE14getDestinationEv
_ZNK7JsonBox12OutputFilterINS_15IndentCancellerEE14getDestinationEv
_ZNK9__gnu_cxx13new_allocatorIcE8max_sizeEv
_ZNK9__gnu_cxx17__normal_iteratorIPKcSsE4baseEv
_ZNK9__gnu_cxx17__normal_iteratorIPKcSsEdeEv
_ZNKSbIiSt11char_traitsIiESaIiEE13get_allocatorEv
_ZNKSbIiSt11char_traitsIiESaIiEE4_Rep12_M_is_sharedEv
_ZNKSbIiSt11char_traitsIiESaIiEE4sizeEv
_ZNKSbIiSt11char_traitsIiESaIiEE6_M_repEv
_ZNKSbIiSt11char_traitsIiESaIiEE7_M_dataEv
_ZNKSbIiSt11char_traitsIiESaIiEE8capacityEv
_ZNKSt8_Rb_treeISsSt4pairIKSsN7JsonBox5ValueEESt10_Select1stIS4_ESt4lessISsESaIS4_EE13get_allocatorEv
_ZNKSt8_Rb_treeISsSt4pairIKSsN7JsonBox5ValueEESt10_Select1stIS4_ESt4lessISsESaIS4_EE21_M_get_Node_allocatorEv
_ZNSaIN7JsonBox5ValueEEC1ERKS1_
_ZNSaIN7JsonBox5ValueEEC1Ev
_ZNSaIN7JsonBox5ValueEED1Ev
_ZNSaIN7JsonBox5ValueEED2Ev
_ZNSaISt13_Rb_tree_nodeISt4pairIKSsN7JsonBox5ValueEEEED2Ev
_ZNSaISt4pairIKSsN7JsonBox5ValueEEEC1Ev
_ZNSaISt4pairIKSsN7JsonBox5ValueEEEC1ISt13_Rb_tree_nodeIS3_EEERKSaIT_E
_ZNSaISt4pairIKSsN7JsonBox5ValueEEED1Ev
_ZNSaIcEC1IiEERKSaIT_E
_ZNSaIiEC1ERKS_
_ZNSaIiEC1Ev
_ZNSaIiEC2ERKS_
_ZNSaIiED1Ev
_ZNSaIiED2Ev
_ZNSbIiSt11char_traitsIiESaIiEE12_Alloc_hiderC1EPiRKS1_
_ZNSbIiSt11char_traitsIiESaIiEE12_Alloc_hiderD1Ev
_ZNSbIiSt11char_traitsIiESaIiEE12_S_empty_repEv
_ZNSbIiSt11char_traitsIiESaIiEE4_Rep10_M_destroyERKS1_
_ZNSbIiSt11char_traitsIiESaIiEE4_Rep10_M_disposeERKS1_
_ZNSbIiSt11char_traitsIiESaIiEE4_Rep10_M_refdataEv
_ZNSbIiSt11char_traitsIiESaIiEE4_Rep11_S_terminalE
_ZNSbIiSt11char_traitsIiESaIiEE4_Rep12_S_empty_repEv
_ZNSbIiSt11char_traitsIiESaIiEE4_Rep15_M_set_sharableEv
_ZNSbIiSt11char_traitsIiESaIiEE4_Rep20_S_empty_rep_storageE
_ZNSbIiSt11char_traitsIiESaIiEE4_Rep26_M_set_length_and_sharableEj
_ZNSbIiSt11char_traitsIiESaIiEE4_Rep8_M_cloneERKS1_j
_ZNSbIiSt11char_traitsIiESaIiEE4_Rep9_S_createEjjRKS1_
_ZNSbIiSt11char_traitsIiESaIiEE5clearEv
_ZNSbIiSt11char_traitsIiESaIiEE7_M_copyEPiPKij
_ZNSbIiSt11char_traitsIiESaIiEE7_M_dataEPi
_ZNSbIiSt11char_traitsIiESaIiEE7_M_moveEPiPKij
_ZNSbIiSt11char_traitsIiESaIiEE7reserveEj
_ZNSbIiSt11char_traitsIiESaIiEE9_M_mutateEjjj
_ZNSbIiSt11char_traitsIiESaIiEE9push_backEi
_ZNSbIiSt11char_traitsIiESaIiEEC1Ev
_ZNSbIiSt11char_traitsIiESaIiEED1Ev
_ZNSt11char_traitsIcE3eofEv
_ZNSt12_Vector_baseIN7JsonBox5ValueESaIS1_EE12_Vector_implD1Ev
_ZNSt12_Vector_baseIN7JsonBox5ValueESaIS1_EE13_M_deallocateEPS1_j
_ZNSt12_Vector_baseIN7JsonBox5ValueESaIS1_EE19_M_get_Tp_allocatorEv
_ZNSt12_Vector_baseIN7JsonBox5ValueESaIS1_EED2Ev
_ZNSt13__copy_normalILb0ELb0EE8__copy_nIPKiPiEET0_T_S6_S5_
_ZNSt14numeric_limitsIhE3maxEv
_ZNSt15binary_functionISsSsbEC2Ev
_ZNSt3mapISsN7JsonBox5ValueESt4lessISsESaISt4pairIKSsS1_EEED1Ev
_ZNSt4lessISsEC1Ev
_ZNSt4pairIKSsN7JsonBox5ValueEED1Ev
_ZNSt6__copyILb1ESt26random_access_iterator_tagE4copyIiEEPT_PKS3_S6_S4_
_ZNSt6vectorIN7JsonBox5ValueESaIS1_EED1Ev
_ZNSt8_Rb_treeISsSt4pairIKSsN7JsonBox5ValueEESt10_Select1stIS4_ESt4lessISsESaIS4_EE11_M_put_nodeEPSt13_Rb_tree_nodeIS4_E
_ZNSt8_Rb_treeISsSt4pairIKSsN7JsonBox5ValueEESt10_Select1stIS4_ESt4lessISsESaIS4_EE13_Rb_tree_implIS8_Lb0EED1Ev
_ZNSt8_Rb_treeISsSt4pairIKSsN7JsonBox5ValueEESt10_Select1stIS4_ESt4lessISsESaIS4_EE15_M_destroy_nodeEPSt13_Rb_tree_nodeIS4_E
_ZNSt8_Rb_treeISsSt4pairIKSsN7JsonBox5ValueEESt10_Select1stIS4_ESt4lessISsESaIS4_EE7_S_leftEPSt18_Rb_tree_node_base
_ZNSt8_Rb_treeISsSt4pairIKSsN7JsonBox5ValueEESt10_Select1stIS4_ESt4lessISsESaIS4_EE8_M_beginEv
_ZNSt8_Rb_treeISsSt4pairIKSsN7JsonBox5ValueEESt10_Select1stIS4_ESt4lessISsESaIS4_EE8_M_eraseEPSt13_Rb_tree_nodeIS4_E
_ZNSt8_Rb_treeISsSt4pairIKSsN7JsonBox5ValueEESt10_Select1stIS4_ESt4lessISsESaIS4_EE8_S_rightEPSt18_Rb_tree_node_base
_ZNSt8_Rb_treeISsSt4pairIKSsN7JsonBox5ValueEESt10_Select1stIS4_ESt4lessISsESaIS4_EED1Ev
_ZNSt8ios_base4setfESt13_Ios_FmtflagsS0_
_ZSt10__copy_auxIPKiPiET0_T_S4_S3_
_ZSt13__destroy_auxIPN7JsonBox5ValueEEvT_S3_St12__false_type
_ZSt3hexRSt8ios_base
_ZSt4copyIPKiPiET0_T_S4_S3_
_ZSt4setwi
_ZSt7setfillIcESt8_SetfillIT_ES1_
_ZSt8_DestroyIN7JsonBox5ValueEEvPT_
_ZSt8_DestroyIPN7JsonBox5ValueEEvT_S3_
_ZSt8_DestroyIPN7JsonBox5ValueES1_EvT_S3_SaIT0_E
_ZStaNRSt13_Ios_FmtflagsS_
_ZStanSt13_Ios_FmtflagsS_
_ZStcoSt13_Ios_Fmtflags
_ZSteqIcSt11char_traitsIcESaIcEEbRKSbIT_T0_T1_ES8_
_ZStgtIcSt11char_traitsIcESaIcEEbRKSbIT_T0_T1_ES8_
_ZStltIcSt11char_traitsIcESaIcEEbRKSbIT_T0_T1_ES8_
_ZStoRRSt13_Ios_FmtflagsS_
_ZStorSt13_Ios_FmtflagsS_
_ZStorSt13_Ios_OpenmodeS_
_ZTIN7JsonBox12OutputFilterINS_14SolidusEscaperEEE
_ZTIN7JsonBox12OutputFilterINS_15IndentCancellerEEE
_ZTSN7JsonBox12OutputFilterINS_14SolidusEscaperEEE
_ZTSN7JsonBox12OutputFilterINS_15IndentCancellerEEE
_ZTVN7JsonBox12OutputFilterINS_14SolidusEscaperEEE
_ZTVN7JsonBox12OutputFilterINS_15IndentCancellerEEE
_ZnwjPv
abort
memcpy
memmove
memset



